ARM GAS  /tmp/ccVWLGiI.s 			page 1


   1              		.syntax unified
   2              		.cpu cortex-m3
   3              		.fpu softvfp
   4              		.eabi_attribute 20, 1
   5              		.eabi_attribute 21, 1
   6              		.eabi_attribute 23, 3
   7              		.eabi_attribute 24, 1
   8              		.eabi_attribute 25, 1
   9              		.eabi_attribute 26, 1
  10              		.eabi_attribute 30, 2
  11              		.eabi_attribute 34, 1
  12              		.eabi_attribute 18, 4
  13              		.thumb
  14              		.file	"bno055.c"
  15              		.text
  16              	.Ltext0:
  17              		.cfi_sections	.debug_frame
  18              		.section	.text.bno055_init,"ax",%progbits
  19              		.align	2
  20              		.global	bno055_init
  21              		.thumb
  22              		.thumb_func
  24              	bno055_init:
  25              	.LFB0:
  26              		.file 1 "Src/bno055.c"
   1:Src/bno055.c  **** /*
   2:Src/bno055.c  **** *
   3:Src/bno055.c  **** ****************************************************************************
   4:Src/bno055.c  **** * Copyright (C) 2015 - 2016 Bosch Sensortec GmbH
   5:Src/bno055.c  **** *
   6:Src/bno055.c  **** * File : bno055.c
   7:Src/bno055.c  **** *
   8:Src/bno055.c  **** * Date : 2016/03/14
   9:Src/bno055.c  **** *
  10:Src/bno055.c  **** * Revision : 2.0.3 $
  11:Src/bno055.c  **** *
  12:Src/bno055.c  **** * Usage: Sensor Driver file for BNO055 sensor
  13:Src/bno055.c  **** *
  14:Src/bno055.c  **** ****************************************************************************
  15:Src/bno055.c  **** * \section License
  16:Src/bno055.c  **** *
  17:Src/bno055.c  **** * Redistribution and use in source and binary forms, with or without
  18:Src/bno055.c  **** * modification, are permitted provided that the following conditions are met:
  19:Src/bno055.c  **** *
  20:Src/bno055.c  **** *   Redistributions of source code must retain the above copyright
  21:Src/bno055.c  **** *   notice, this list of conditions and the following disclaimer.
  22:Src/bno055.c  **** *
  23:Src/bno055.c  **** *   Redistributions in binary form must reproduce the above copyright
  24:Src/bno055.c  **** *   notice, this list of conditions and the following disclaimer in the
  25:Src/bno055.c  **** *   documentation and/or other materials provided with the distribution.
  26:Src/bno055.c  **** *
  27:Src/bno055.c  **** *   Neither the name of the copyright holder nor the names of the
  28:Src/bno055.c  **** *   contributors may be used to endorse or promote products derived from
  29:Src/bno055.c  **** *   this software without specific prior written permission.
  30:Src/bno055.c  **** *
  31:Src/bno055.c  **** * THIS SOFTWARE IS PROVIDED BY THE COPYRIGHT HOLDERS AND
  32:Src/bno055.c  **** * CONTRIBUTORS "AS IS" AND ANY EXPRESS OR
ARM GAS  /tmp/ccVWLGiI.s 			page 2


  33:Src/bno055.c  **** * IMPLIED WARRANTIES, INCLUDING, BUT NOT LIMITED TO, THE IMPLIED
  34:Src/bno055.c  **** * WARRANTIES OF MERCHANTABILITY AND FITNESS FOR A PARTICULAR PURPOSE ARE
  35:Src/bno055.c  **** * DISCLAIMED. IN NO EVENT SHALL COPYRIGHT HOLDER
  36:Src/bno055.c  **** * OR CONTRIBUTORS BE LIABLE FOR ANY
  37:Src/bno055.c  **** * DIRECT, INDIRECT, INCIDENTAL, SPECIAL, EXEMPLARY,
  38:Src/bno055.c  **** * OR CONSEQUENTIAL DAMAGES(INCLUDING, BUT NOT LIMITED TO,
  39:Src/bno055.c  **** * PROCUREMENT OF SUBSTITUTE GOODS OR SERVICES;
  40:Src/bno055.c  **** * LOSS OF USE, DATA, OR PROFITS; OR BUSINESS INTERRUPTION)
  41:Src/bno055.c  **** * HOWEVER CAUSED AND ON ANY THEORY OF LIABILITY,
  42:Src/bno055.c  **** * WHETHER IN CONTRACT, STRICT LIABILITY, OR TORT
  43:Src/bno055.c  **** * (INCLUDING NEGLIGENCE OR OTHERWISE) ARISING IN
  44:Src/bno055.c  **** * ANY WAY OUT OF THE USE OF THIS
  45:Src/bno055.c  **** * SOFTWARE, EVEN IF ADVISED OF THE POSSIBILITY OF SUCH DAMAGE
  46:Src/bno055.c  **** *
  47:Src/bno055.c  **** * The information provided is believed to be accurate and reliable.
  48:Src/bno055.c  **** * The copyright holder assumes no responsibility
  49:Src/bno055.c  **** * for the consequences of use
  50:Src/bno055.c  **** * of such information nor for any infringement of patents or
  51:Src/bno055.c  **** * other rights of third parties which may result from its use.
  52:Src/bno055.c  **** * No license is granted by implication or otherwise under any patent or
  53:Src/bno055.c  **** * patent rights of the copyright holder.
  54:Src/bno055.c  **** **************************************************************************/
  55:Src/bno055.c  **** 
  56:Src/bno055.c  **** /*********************************************************/
  57:Src/bno055.c  **** /*				INCLUDES	*/
  58:Src/bno055.c  **** /*******************************************************/
  59:Src/bno055.c  **** #include "bno055.h"
  60:Src/bno055.c  **** /*! file <BNO055 >
  61:Src/bno055.c  ****     brief <Sensor driver for BNO055> */
  62:Src/bno055.c  **** /*	STRUCTURE DEFINITIONS	*/
  63:Src/bno055.c  **** static struct bno055_t *p_bno055;
  64:Src/bno055.c  **** /*	 LOCAL FUNCTIONS	*/
  65:Src/bno055.c  **** /*!
  66:Src/bno055.c  ****  *	@brief
  67:Src/bno055.c  ****  *	This API is used for initialize
  68:Src/bno055.c  ****  *	bus read, bus write function pointers,device
  69:Src/bno055.c  ****  *	address,accel revision id, gyro revision id
  70:Src/bno055.c  ****  *	mag revision id, software revision id, boot loader
  71:Src/bno055.c  ****  *	revision id and page id
  72:Src/bno055.c  ****  *
  73:Src/bno055.c  ****  *	@param  bno055 - structure pointer
  74:Src/bno055.c  ****  *
  75:Src/bno055.c  ****  *
  76:Src/bno055.c  ****  *	@return results of bus communication function
  77:Src/bno055.c  ****  *	@retval 0 -> BNO055_SUCCESS
  78:Src/bno055.c  ****  *	@retval 1 -> BNO055_ERROR
  79:Src/bno055.c  ****  *
  80:Src/bno055.c  ****  *	@note While changing the parameter of the bno055_t
  81:Src/bno055.c  ****  *	consider the following point:
  82:Src/bno055.c  ****  *	Changing the reference value of the parameter
  83:Src/bno055.c  ****  *	will changes the local copy or local reference
  84:Src/bno055.c  ****  *	make sure your changes will not
  85:Src/bno055.c  ****  *	affect the reference value of the parameter
  86:Src/bno055.c  ****  *	(Better case don't change the reference value of the parameter)
  87:Src/bno055.c  ****  */
  88:Src/bno055.c  **** BNO055_RETURN_FUNCTION_TYPE bno055_init(struct bno055_t *bno055)
  89:Src/bno055.c  **** {
ARM GAS  /tmp/ccVWLGiI.s 			page 3


  27              		.loc 1 89 0
  28              		.cfi_startproc
  29              		@ args = 0, pretend = 0, frame = 8
  30              		@ frame_needed = 0, uses_anonymous_args = 0
  31              	.LVL0:
  32 0000 F0B5     		push	{r4, r5, r6, r7, lr}
  33              	.LCFI0:
  34              		.cfi_def_cfa_offset 20
  35              		.cfi_offset 4, -20
  36              		.cfi_offset 5, -16
  37              		.cfi_offset 6, -12
  38              		.cfi_offset 7, -8
  39              		.cfi_offset 14, -4
  40 0002 0446     		mov	r4, r0
  41 0004 83B0     		sub	sp, sp, #12
  42              	.LCFI1:
  43              		.cfi_def_cfa_offset 32
  90:Src/bno055.c  **** 	/* Variable used to return value of
  91:Src/bno055.c  **** 	communication routine*/
  92:Src/bno055.c  **** 	BNO055_RETURN_FUNCTION_TYPE com_rslt = BNO055_ERROR;
  93:Src/bno055.c  **** 	u8 data_u8 = BNO055_INIT_VALUE;
  94:Src/bno055.c  **** 	u8 bno055_page_zero_u8 = BNO055_PAGE_ZERO;
  95:Src/bno055.c  **** 	/* Array holding the Software revision id
  96:Src/bno055.c  **** 	*/
  97:Src/bno055.c  **** 	u8 a_SW_ID_u8[BNO055_REV_ID_SIZE] = {
  98:Src/bno055.c  **** 	BNO055_INIT_VALUE, BNO055_INIT_VALUE};
  99:Src/bno055.c  **** 	/* stuct parameters are assign to bno055*/
 100:Src/bno055.c  **** 	p_bno055 = bno055;
  44              		.loc 1 100 0
  45 0006 3A4D     		ldr	r5, .L3
  93:Src/bno055.c  **** 	u8 bno055_page_zero_u8 = BNO055_PAGE_ZERO;
  46              		.loc 1 93 0
  47 0008 0026     		movs	r6, #0
 101:Src/bno055.c  **** 	/* Write the default page as zero*/
 102:Src/bno055.c  **** 	com_rslt = p_bno055->BNO055_BUS_WRITE_FUNC
  48              		.loc 1 102 0
  49 000a C768     		ldr	r7, [r0, #12]
  93:Src/bno055.c  **** 	u8 bno055_page_zero_u8 = BNO055_PAGE_ZERO;
  50              		.loc 1 93 0
  51 000c 8DF80260 		strb	r6, [sp, #2]
  94:Src/bno055.c  **** 	/* Array holding the Software revision id
  52              		.loc 1 94 0
  53 0010 8DF80360 		strb	r6, [sp, #3]
  97:Src/bno055.c  **** 	BNO055_INIT_VALUE, BNO055_INIT_VALUE};
  54              		.loc 1 97 0
  55 0014 8DF80460 		strb	r6, [sp, #4]
  56 0018 8DF80560 		strb	r6, [sp, #5]
  57              		.loc 1 102 0
  58 001c 0DF10302 		add	r2, sp, #3
  59 0020 0721     		movs	r1, #7
  60 0022 0123     		movs	r3, #1
  61 0024 407A     		ldrb	r0, [r0, #9]	@ zero_extendqisi2
  62              	.LVL1:
 100:Src/bno055.c  **** 	/* Write the default page as zero*/
  63              		.loc 1 100 0
  64 0026 2C60     		str	r4, [r5]
  65              		.loc 1 102 0
ARM GAS  /tmp/ccVWLGiI.s 			page 4


  66 0028 B847     		blx	r7
  67              	.LVL2:
 103:Src/bno055.c  **** 	(p_bno055->dev_addr,
 104:Src/bno055.c  **** 	BNO055_PAGE_ID_REG, &bno055_page_zero_u8, BNO055_GEN_READ_WRITE_LENGTH);
 105:Src/bno055.c  **** 	/* Read the chip id of the sensor from page
 106:Src/bno055.c  **** 	zero 0x00 register*/
 107:Src/bno055.c  **** 	com_rslt += p_bno055->BNO055_BUS_READ_FUNC
  68              		.loc 1 107 0
  69 002a 2B68     		ldr	r3, [r5]
  70 002c 3146     		mov	r1, r6
  71 002e 0DF10202 		add	r2, sp, #2
  72 0032 1E69     		ldr	r6, [r3, #16]
 102:Src/bno055.c  **** 	(p_bno055->dev_addr,
  73              		.loc 1 102 0
  74 0034 0446     		mov	r4, r0
  75              	.LVL3:
  76              		.loc 1 107 0
  77 0036 587A     		ldrb	r0, [r3, #9]	@ zero_extendqisi2
  78 0038 0123     		movs	r3, #1
  79 003a B047     		blx	r6
  80              	.LVL4:
 108:Src/bno055.c  **** 	(p_bno055->dev_addr,
 109:Src/bno055.c  **** 	BNO055_CHIP_ID_REG, &data_u8, BNO055_GEN_READ_WRITE_LENGTH);
 110:Src/bno055.c  **** 	p_bno055->chip_id = data_u8;
  81              		.loc 1 110 0
  82 003c 2B68     		ldr	r3, [r5]
  83 003e 9DF80220 		ldrb	r2, [sp, #2]	@ zero_extendqisi2
 111:Src/bno055.c  **** 	/* Read the accel revision id from page
 112:Src/bno055.c  **** 	zero 0x01 register*/
 113:Src/bno055.c  **** 	com_rslt += p_bno055->BNO055_BUS_READ_FUNC
  84              		.loc 1 113 0
  85 0042 0121     		movs	r1, #1
 110:Src/bno055.c  **** 	/* Read the accel revision id from page
  86              		.loc 1 110 0
  87 0044 1A70     		strb	r2, [r3]
  88              		.loc 1 113 0
  89 0046 1E69     		ldr	r6, [r3, #16]
  90 0048 0DF10202 		add	r2, sp, #2
 107:Src/bno055.c  **** 	(p_bno055->dev_addr,
  91              		.loc 1 107 0
  92 004c 0444     		add	r4, r4, r0
  93              	.LVL5:
  94              		.loc 1 113 0
  95 004e 587A     		ldrb	r0, [r3, #9]	@ zero_extendqisi2
  96 0050 0B46     		mov	r3, r1
  97 0052 B047     		blx	r6
  98              	.LVL6:
 114:Src/bno055.c  **** 	(p_bno055->dev_addr,
 115:Src/bno055.c  **** 	BNO055_ACCEL_REV_ID_REG, &data_u8, BNO055_GEN_READ_WRITE_LENGTH);
 116:Src/bno055.c  **** 	p_bno055->accel_rev_id = data_u8;
  99              		.loc 1 116 0
 100 0054 2B68     		ldr	r3, [r5]
 101 0056 9DF80220 		ldrb	r2, [sp, #2]	@ zero_extendqisi2
 107:Src/bno055.c  **** 	(p_bno055->dev_addr,
 102              		.loc 1 107 0
 103 005a E4B2     		uxtb	r4, r4
 104              	.LVL7:
ARM GAS  /tmp/ccVWLGiI.s 			page 5


 105              		.loc 1 116 0
 106 005c 5A71     		strb	r2, [r3, #5]
 117:Src/bno055.c  **** 	/* Read the mag revision id from page
 118:Src/bno055.c  **** 	zero 0x02 register*/
 119:Src/bno055.c  **** 	com_rslt += p_bno055->BNO055_BUS_READ_FUNC
 107              		.loc 1 119 0
 108 005e 1E69     		ldr	r6, [r3, #16]
 109 0060 0DF10202 		add	r2, sp, #2
 113:Src/bno055.c  **** 	(p_bno055->dev_addr,
 110              		.loc 1 113 0
 111 0064 0444     		add	r4, r4, r0
 112              	.LVL8:
 113              		.loc 1 119 0
 114 0066 0221     		movs	r1, #2
 115 0068 587A     		ldrb	r0, [r3, #9]	@ zero_extendqisi2
 116 006a 0123     		movs	r3, #1
 117 006c B047     		blx	r6
 118              	.LVL9:
 120:Src/bno055.c  **** 	(p_bno055->dev_addr,
 121:Src/bno055.c  **** 	BNO055_MAG_REV_ID_REG, &data_u8, BNO055_GEN_READ_WRITE_LENGTH);
 122:Src/bno055.c  **** 	p_bno055->mag_rev_id = data_u8;
 119              		.loc 1 122 0
 120 006e 2B68     		ldr	r3, [r5]
 121 0070 9DF80220 		ldrb	r2, [sp, #2]	@ zero_extendqisi2
 113:Src/bno055.c  **** 	(p_bno055->dev_addr,
 122              		.loc 1 113 0
 123 0074 E4B2     		uxtb	r4, r4
 124              	.LVL10:
 125              		.loc 1 122 0
 126 0076 9A71     		strb	r2, [r3, #6]
 123:Src/bno055.c  **** 	/* Read the gyro revision id from page
 124:Src/bno055.c  **** 	zero 0x02 register*/
 125:Src/bno055.c  **** 	com_rslt += p_bno055->BNO055_BUS_READ_FUNC
 127              		.loc 1 125 0
 128 0078 1E69     		ldr	r6, [r3, #16]
 129 007a 0DF10202 		add	r2, sp, #2
 119:Src/bno055.c  **** 	(p_bno055->dev_addr,
 130              		.loc 1 119 0
 131 007e 0444     		add	r4, r4, r0
 132              	.LVL11:
 133              		.loc 1 125 0
 134 0080 0321     		movs	r1, #3
 135 0082 587A     		ldrb	r0, [r3, #9]	@ zero_extendqisi2
 136 0084 0123     		movs	r3, #1
 137 0086 B047     		blx	r6
 138              	.LVL12:
 126:Src/bno055.c  **** 	(p_bno055->dev_addr,
 127:Src/bno055.c  **** 	BNO055_GYRO_REV_ID_REG, &data_u8, BNO055_GEN_READ_WRITE_LENGTH);
 128:Src/bno055.c  **** 	p_bno055->gyro_rev_id = data_u8;
 139              		.loc 1 128 0
 140 0088 2B68     		ldr	r3, [r5]
 141 008a 9DF80220 		ldrb	r2, [sp, #2]	@ zero_extendqisi2
 119:Src/bno055.c  **** 	(p_bno055->dev_addr,
 142              		.loc 1 119 0
 143 008e E4B2     		uxtb	r4, r4
 144              	.LVL13:
 145              		.loc 1 128 0
ARM GAS  /tmp/ccVWLGiI.s 			page 6


 146 0090 DA71     		strb	r2, [r3, #7]
 129:Src/bno055.c  **** 	/* Read the boot loader revision from page
 130:Src/bno055.c  **** 	zero 0x06 register*/
 131:Src/bno055.c  **** 	com_rslt += p_bno055->BNO055_BUS_READ_FUNC
 147              		.loc 1 131 0
 148 0092 1E69     		ldr	r6, [r3, #16]
 149 0094 0DF10202 		add	r2, sp, #2
 125:Src/bno055.c  **** 	(p_bno055->dev_addr,
 150              		.loc 1 125 0
 151 0098 0444     		add	r4, r4, r0
 152              	.LVL14:
 153              		.loc 1 131 0
 154 009a 0621     		movs	r1, #6
 155 009c 587A     		ldrb	r0, [r3, #9]	@ zero_extendqisi2
 156 009e 0123     		movs	r3, #1
 157 00a0 B047     		blx	r6
 158              	.LVL15:
 132:Src/bno055.c  **** 	(p_bno055->dev_addr,
 133:Src/bno055.c  **** 	BNO055_BL_REV_ID_REG, &data_u8, BNO055_GEN_READ_WRITE_LENGTH);
 134:Src/bno055.c  **** 	p_bno055->bl_rev_id = data_u8;
 159              		.loc 1 134 0
 160 00a2 2B68     		ldr	r3, [r5]
 161 00a4 9DF80220 		ldrb	r2, [sp, #2]	@ zero_extendqisi2
 135:Src/bno055.c  **** 	/* Read the software revision id from page
 136:Src/bno055.c  **** 	zero 0x04 and 0x05 register( 2 bytes of data)*/
 137:Src/bno055.c  **** 	com_rslt += p_bno055->BNO055_BUS_READ_FUNC(p_bno055->dev_addr,
 162              		.loc 1 137 0
 163 00a8 0421     		movs	r1, #4
 125:Src/bno055.c  **** 	(p_bno055->dev_addr,
 164              		.loc 1 125 0
 165 00aa E4B2     		uxtb	r4, r4
 166              	.LVL16:
 134:Src/bno055.c  **** 	/* Read the software revision id from page
 167              		.loc 1 134 0
 168 00ac 1A72     		strb	r2, [r3, #8]
 169              		.loc 1 137 0
 170 00ae 1E69     		ldr	r6, [r3, #16]
 171 00b0 0DEB0102 		add	r2, sp, r1
 131:Src/bno055.c  **** 	(p_bno055->dev_addr,
 172              		.loc 1 131 0
 173 00b4 0444     		add	r4, r4, r0
 174              	.LVL17:
 175              		.loc 1 137 0
 176 00b6 587A     		ldrb	r0, [r3, #9]	@ zero_extendqisi2
 177 00b8 0223     		movs	r3, #2
 178 00ba B047     		blx	r6
 179              	.LVL18:
 138:Src/bno055.c  **** 	BNO055_SW_REV_ID_LSB_REG,
 139:Src/bno055.c  **** 	a_SW_ID_u8, BNO055_LSB_MSB_READ_LENGTH);
 140:Src/bno055.c  **** 	a_SW_ID_u8[BNO055_SW_ID_LSB] = BNO055_GET_BITSLICE(
 141:Src/bno055.c  **** 	a_SW_ID_u8[BNO055_SW_ID_LSB],
 142:Src/bno055.c  **** 	BNO055_SW_REV_ID_LSB);
 143:Src/bno055.c  **** 	p_bno055->sw_rev_id = (u16)
 180              		.loc 1 143 0
 181 00bc 9DF80510 		ldrb	r1, [sp, #5]	@ zero_extendqisi2
 182 00c0 9DF80420 		ldrb	r2, [sp, #4]	@ zero_extendqisi2
 183 00c4 2B68     		ldr	r3, [r5]
ARM GAS  /tmp/ccVWLGiI.s 			page 7


 184 00c6 42EA0121 		orr	r1, r2, r1, lsl #8
 131:Src/bno055.c  **** 	(p_bno055->dev_addr,
 185              		.loc 1 131 0
 186 00ca E4B2     		uxtb	r4, r4
 187              	.LVL19:
 144:Src/bno055.c  **** 	((((u32)((u8)a_SW_ID_u8[BNO055_SW_ID_MSB])) <<
 145:Src/bno055.c  **** 	BNO055_SHIFT_EIGHT_BITS) | (a_SW_ID_u8[BNO055_SW_ID_LSB]));
 146:Src/bno055.c  **** 	/* Read the page id from the register 0x07*/
 147:Src/bno055.c  **** 	com_rslt += p_bno055->BNO055_BUS_READ_FUNC
 188              		.loc 1 147 0
 189 00cc 0DF10202 		add	r2, sp, #2
 143:Src/bno055.c  **** 	((((u32)((u8)a_SW_ID_u8[BNO055_SW_ID_MSB])) <<
 190              		.loc 1 143 0
 191 00d0 5980     		strh	r1, [r3, #2]	@ movhi
 192              		.loc 1 147 0
 193 00d2 1E69     		ldr	r6, [r3, #16]
 137:Src/bno055.c  **** 	BNO055_SW_REV_ID_LSB_REG,
 194              		.loc 1 137 0
 195 00d4 0444     		add	r4, r4, r0
 196              	.LVL20:
 197              		.loc 1 147 0
 198 00d6 0721     		movs	r1, #7
 199 00d8 587A     		ldrb	r0, [r3, #9]	@ zero_extendqisi2
 200 00da 0123     		movs	r3, #1
 201 00dc B047     		blx	r6
 202              	.LVL21:
 137:Src/bno055.c  **** 	BNO055_SW_REV_ID_LSB_REG,
 203              		.loc 1 137 0
 204 00de E4B2     		uxtb	r4, r4
 205              	.LVL22:
 148:Src/bno055.c  **** 	(p_bno055->dev_addr,
 149:Src/bno055.c  **** 	BNO055_PAGE_ID_REG, &data_u8, BNO055_GEN_READ_WRITE_LENGTH);
 150:Src/bno055.c  **** 	p_bno055->page_id = data_u8;
 206              		.loc 1 150 0
 207 00e0 2B68     		ldr	r3, [r5]
 208 00e2 9DF80220 		ldrb	r2, [sp, #2]	@ zero_extendqisi2
 147:Src/bno055.c  **** 	(p_bno055->dev_addr,
 209              		.loc 1 147 0
 210 00e6 2044     		add	r0, r0, r4
 211              	.LVL23:
 151:Src/bno055.c  **** 
 152:Src/bno055.c  **** 	return com_rslt;
 153:Src/bno055.c  **** }
 212              		.loc 1 153 0
 213 00e8 40B2     		sxtb	r0, r0
 150:Src/bno055.c  **** 
 214              		.loc 1 150 0
 215 00ea 1A71     		strb	r2, [r3, #4]
 216              		.loc 1 153 0
 217 00ec 03B0     		add	sp, sp, #12
 218              	.LCFI2:
 219              		.cfi_def_cfa_offset 20
 220              		@ sp needed
 221 00ee F0BD     		pop	{r4, r5, r6, r7, pc}
 222              	.L4:
 223              		.align	2
 224              	.L3:
ARM GAS  /tmp/ccVWLGiI.s 			page 8


 225 00f0 00000000 		.word	.LANCHOR0
 226              		.cfi_endproc
 227              	.LFE0:
 229              		.section	.text.bno055_write_register,"ax",%progbits
 230              		.align	2
 231              		.global	bno055_write_register
 232              		.thumb
 233              		.thumb_func
 235              	bno055_write_register:
 236              	.LFB1:
 154:Src/bno055.c  **** /*!
 155:Src/bno055.c  ****  *	@brief
 156:Src/bno055.c  ****  *	This API gives data to the given register and
 157:Src/bno055.c  ****  *	the data is written in the corresponding register address
 158:Src/bno055.c  ****  *
 159:Src/bno055.c  ****  *  @param addr_u8 : Address of the register
 160:Src/bno055.c  ****  *	@param data_u8 : Data to be written to the register
 161:Src/bno055.c  ****  *	@param len_u8  : Length of the Data
 162:Src/bno055.c  ****  *
 163:Src/bno055.c  ****  *	@return results of bus communication function
 164:Src/bno055.c  ****  *	@retval 0 -> BNO055_SUCCESS
 165:Src/bno055.c  ****  *	@retval 1 -> BNO055_ERROR
 166:Src/bno055.c  ****  *
 167:Src/bno055.c  ****  *
 168:Src/bno055.c  **** */
 169:Src/bno055.c  **** BNO055_RETURN_FUNCTION_TYPE bno055_write_register(u8 addr_u8,
 170:Src/bno055.c  **** u8 *data_u8, u8 len_u8)
 171:Src/bno055.c  **** {
 237              		.loc 1 171 0
 238              		.cfi_startproc
 239              		@ args = 0, pretend = 0, frame = 0
 240              		@ frame_needed = 0, uses_anonymous_args = 0
 241              		@ link register save eliminated.
 242              	.LVL24:
 172:Src/bno055.c  **** 	/* Variable used to return value of
 173:Src/bno055.c  **** 	communication routine*/
 174:Src/bno055.c  **** 	BNO055_RETURN_FUNCTION_TYPE com_rslt = BNO055_ERROR;
 175:Src/bno055.c  **** 	/* Check the struct p_bno055 is empty */
 176:Src/bno055.c  **** 	if (p_bno055 == BNO055_INIT_VALUE) {
 243              		.loc 1 176 0
 244 0000 084B     		ldr	r3, .L9
 171:Src/bno055.c  **** 	/* Variable used to return value of
 245              		.loc 1 171 0
 246 0002 30B4     		push	{r4, r5}
 247              	.LCFI3:
 248              		.cfi_def_cfa_offset 8
 249              		.cfi_offset 4, -8
 250              		.cfi_offset 5, -4
 251              		.loc 1 176 0
 252 0004 1C68     		ldr	r4, [r3]
 253 0006 44B1     		cbz	r4, .L6
 254 0008 0D46     		mov	r5, r1
 255 000a 1346     		mov	r3, r2
 177:Src/bno055.c  **** 		return BNO055_E_NULL_PTR;
 178:Src/bno055.c  **** 		} else {
 179:Src/bno055.c  **** 			/* Write the values of respective given register */
 180:Src/bno055.c  **** 			com_rslt = p_bno055->BNO055_BUS_WRITE_FUNC
ARM GAS  /tmp/ccVWLGiI.s 			page 9


 256              		.loc 1 180 0
 257 000c 2A46     		mov	r2, r5
 258              	.LVL25:
 259 000e E568     		ldr	r5, [r4, #12]
 260 0010 0146     		mov	r1, r0
 261              	.LVL26:
 262 0012 AC46     		mov	ip, r5
 263 0014 607A     		ldrb	r0, [r4, #9]	@ zero_extendqisi2
 264              	.LVL27:
 181:Src/bno055.c  **** 			(p_bno055->dev_addr, addr_u8, data_u8, len_u8);
 182:Src/bno055.c  **** 		}
 183:Src/bno055.c  **** 	return com_rslt;
 184:Src/bno055.c  **** }
 265              		.loc 1 184 0
 266 0016 30BC     		pop	{r4, r5}
 267              	.LCFI4:
 268              		.cfi_remember_state
 269              		.cfi_restore 5
 270              		.cfi_restore 4
 271              		.cfi_def_cfa_offset 0
 180:Src/bno055.c  **** 			(p_bno055->dev_addr, addr_u8, data_u8, len_u8);
 272              		.loc 1 180 0
 273 0018 6047     		bx	ip
 274              	.LVL28:
 275              	.L6:
 276              	.LCFI5:
 277              		.cfi_restore_state
 278              		.loc 1 184 0
 279 001a 6FF07E00 		mvn	r0, #126
 280              	.LVL29:
 281 001e 30BC     		pop	{r4, r5}
 282              	.LCFI6:
 283              		.cfi_restore 5
 284              		.cfi_restore 4
 285              		.cfi_def_cfa_offset 0
 286 0020 7047     		bx	lr
 287              	.L10:
 288 0022 00BF     		.align	2
 289              	.L9:
 290 0024 00000000 		.word	.LANCHOR0
 291              		.cfi_endproc
 292              	.LFE1:
 294              		.section	.text.bno055_read_register,"ax",%progbits
 295              		.align	2
 296              		.global	bno055_read_register
 297              		.thumb
 298              		.thumb_func
 300              	bno055_read_register:
 301              	.LFB2:
 185:Src/bno055.c  **** /*!
 186:Src/bno055.c  ****  *	@brief This API reads the data from
 187:Src/bno055.c  ****  *	the given register address
 188:Src/bno055.c  ****  *
 189:Src/bno055.c  ****  *  @param addr_u8 : Address of the register
 190:Src/bno055.c  ****  *  @param data_u8 : address of the variable,
 191:Src/bno055.c  ****  *	read value will be kept
 192:Src/bno055.c  ****  *  @param len_u8  : Length of the data
ARM GAS  /tmp/ccVWLGiI.s 			page 10


 193:Src/bno055.c  ****  *
 194:Src/bno055.c  ****  *
 195:Src/bno055.c  ****  *	@return results of bus communication function
 196:Src/bno055.c  ****  *	@retval 0 -> BNO055_SUCCESS
 197:Src/bno055.c  ****  *	@retval 1 -> BNO055_ERROR
 198:Src/bno055.c  ****  *
 199:Src/bno055.c  ****  */
 200:Src/bno055.c  **** BNO055_RETURN_FUNCTION_TYPE bno055_read_register(u8 addr_u8,
 201:Src/bno055.c  **** u8 *data_u8, u8 len_u8)
 202:Src/bno055.c  **** {
 302              		.loc 1 202 0
 303              		.cfi_startproc
 304              		@ args = 0, pretend = 0, frame = 0
 305              		@ frame_needed = 0, uses_anonymous_args = 0
 306              		@ link register save eliminated.
 307              	.LVL30:
 203:Src/bno055.c  **** 	/* Variable used to return value of
 204:Src/bno055.c  **** 	communication routine*/
 205:Src/bno055.c  **** 	BNO055_RETURN_FUNCTION_TYPE com_rslt = BNO055_ERROR;
 206:Src/bno055.c  **** 	/* Check the struct p_bno055 is empty */
 207:Src/bno055.c  **** 	if (p_bno055 == BNO055_INIT_VALUE) {
 308              		.loc 1 207 0
 309 0000 084B     		ldr	r3, .L14
 202:Src/bno055.c  **** 	/* Variable used to return value of
 310              		.loc 1 202 0
 311 0002 30B4     		push	{r4, r5}
 312              	.LCFI7:
 313              		.cfi_def_cfa_offset 8
 314              		.cfi_offset 4, -8
 315              		.cfi_offset 5, -4
 316              		.loc 1 207 0
 317 0004 1C68     		ldr	r4, [r3]
 318 0006 44B1     		cbz	r4, .L12
 319 0008 0D46     		mov	r5, r1
 320 000a 1346     		mov	r3, r2
 208:Src/bno055.c  **** 		return BNO055_E_NULL_PTR;
 209:Src/bno055.c  **** 		} else {
 210:Src/bno055.c  **** 		/* Read the value from given register*/
 211:Src/bno055.c  **** 			com_rslt = p_bno055->BNO055_BUS_READ_FUNC
 321              		.loc 1 211 0
 322 000c 2A46     		mov	r2, r5
 323              	.LVL31:
 324 000e 2569     		ldr	r5, [r4, #16]
 325 0010 0146     		mov	r1, r0
 326              	.LVL32:
 327 0012 AC46     		mov	ip, r5
 328 0014 607A     		ldrb	r0, [r4, #9]	@ zero_extendqisi2
 329              	.LVL33:
 212:Src/bno055.c  **** 			(p_bno055->dev_addr, addr_u8, data_u8, len_u8);
 213:Src/bno055.c  **** 		}
 214:Src/bno055.c  **** 	return com_rslt;
 215:Src/bno055.c  **** }
 330              		.loc 1 215 0
 331 0016 30BC     		pop	{r4, r5}
 332              	.LCFI8:
 333              		.cfi_remember_state
 334              		.cfi_restore 5
ARM GAS  /tmp/ccVWLGiI.s 			page 11


 335              		.cfi_restore 4
 336              		.cfi_def_cfa_offset 0
 211:Src/bno055.c  **** 			(p_bno055->dev_addr, addr_u8, data_u8, len_u8);
 337              		.loc 1 211 0
 338 0018 6047     		bx	ip
 339              	.LVL34:
 340              	.L12:
 341              	.LCFI9:
 342              		.cfi_restore_state
 343              		.loc 1 215 0
 344 001a 6FF07E00 		mvn	r0, #126
 345              	.LVL35:
 346 001e 30BC     		pop	{r4, r5}
 347              	.LCFI10:
 348              		.cfi_restore 5
 349              		.cfi_restore 4
 350              		.cfi_def_cfa_offset 0
 351 0020 7047     		bx	lr
 352              	.L15:
 353 0022 00BF     		.align	2
 354              	.L14:
 355 0024 00000000 		.word	.LANCHOR0
 356              		.cfi_endproc
 357              	.LFE2:
 359              		.section	.text.bno055_read_page_id,"ax",%progbits
 360              		.align	2
 361              		.global	bno055_read_page_id
 362              		.thumb
 363              		.thumb_func
 365              	bno055_read_page_id:
 366              	.LFB5:
 216:Src/bno055.c  **** /*!
 217:Src/bno055.c  ****  *	@brief This API reads chip id
 218:Src/bno055.c  ****  *	from register 0x00 it is a byte of data
 219:Src/bno055.c  ****  *
 220:Src/bno055.c  ****  *
 221:Src/bno055.c  ****  *	@param chip_id_u8 : The chip id value 0xA0
 222:Src/bno055.c  ****  *
 223:Src/bno055.c  ****  *	@return results of bus communication function
 224:Src/bno055.c  ****  *	@retval 0 -> BNO055_SUCCESS
 225:Src/bno055.c  ****  *	@retval 1 -> BNO055_ERROR
 226:Src/bno055.c  ****  */
 227:Src/bno055.c  **** BNO055_RETURN_FUNCTION_TYPE bno055_read_chip_id(u8 *chip_id_u8)
 228:Src/bno055.c  **** {
 229:Src/bno055.c  **** 	/* Variable used to return value of
 230:Src/bno055.c  **** 	communication routine*/
 231:Src/bno055.c  **** 	BNO055_RETURN_FUNCTION_TYPE com_rslt = BNO055_ERROR;
 232:Src/bno055.c  **** 	u8 data_u8 = BNO055_INIT_VALUE;
 233:Src/bno055.c  **** 	s8 stat_s8 = BNO055_ERROR;
 234:Src/bno055.c  **** 	/* Check the struct p_bno055 is empty */
 235:Src/bno055.c  **** 	if (p_bno055 == BNO055_INIT_VALUE) {
 236:Src/bno055.c  **** 		return BNO055_E_NULL_PTR;
 237:Src/bno055.c  **** 		} else {
 238:Src/bno055.c  **** 		/*condition check for page, chip id is
 239:Src/bno055.c  **** 		available in the page zero*/
 240:Src/bno055.c  **** 		if (p_bno055->page_id != BNO055_PAGE_ZERO)
 241:Src/bno055.c  **** 			/* Write the page zero*/
ARM GAS  /tmp/ccVWLGiI.s 			page 12


 242:Src/bno055.c  **** 			stat_s8 = bno055_write_page_id(BNO055_PAGE_ZERO);
 243:Src/bno055.c  **** 		if ((stat_s8 == BNO055_SUCCESS) ||
 244:Src/bno055.c  **** 		(p_bno055->page_id == BNO055_PAGE_ZERO)) {
 245:Src/bno055.c  **** 			/* Read the chip id*/
 246:Src/bno055.c  **** 			com_rslt = p_bno055->BNO055_BUS_READ_FUNC
 247:Src/bno055.c  **** 			(p_bno055->dev_addr,
 248:Src/bno055.c  **** 			BNO055_CHIP_ID_REG, &data_u8,
 249:Src/bno055.c  **** 			BNO055_GEN_READ_WRITE_LENGTH);
 250:Src/bno055.c  **** 			*chip_id_u8 = data_u8;
 251:Src/bno055.c  **** 		} else {
 252:Src/bno055.c  **** 		com_rslt = BNO055_ERROR;
 253:Src/bno055.c  **** 		}
 254:Src/bno055.c  **** 	}
 255:Src/bno055.c  **** 	return com_rslt;
 256:Src/bno055.c  **** }
 257:Src/bno055.c  **** /*!
 258:Src/bno055.c  ****  *	@brief This API reads software revision id
 259:Src/bno055.c  ****  *	from register 0x04 and 0x05 it is a two byte of data
 260:Src/bno055.c  ****  *
 261:Src/bno055.c  ****  *	@param sw_id_u8 : The SW revision id
 262:Src/bno055.c  ****  *
 263:Src/bno055.c  ****  *	@return results of bus communication function
 264:Src/bno055.c  ****  *	@retval 0 -> BNO055_SUCCESS
 265:Src/bno055.c  ****  *	@retval 1 -> BNO055_ERROR
 266:Src/bno055.c  ****  *
 267:Src/bno055.c  ****  *
 268:Src/bno055.c  ****  */
 269:Src/bno055.c  **** BNO055_RETURN_FUNCTION_TYPE bno055_read_sw_rev_id(u16 *sw_id_u8)
 270:Src/bno055.c  **** {
 271:Src/bno055.c  **** 	/* Variable used to return value of
 272:Src/bno055.c  **** 	communication routine*/
 273:Src/bno055.c  **** 	BNO055_RETURN_FUNCTION_TYPE com_rslt = BNO055_ERROR;
 274:Src/bno055.c  **** 	/* array having the software revision id
 275:Src/bno055.c  **** 	data_u8[0] - LSB
 276:Src/bno055.c  **** 	data_u8[1] - MSB*/
 277:Src/bno055.c  **** 	u8 data_u8[BNO055_REV_ID_SIZE] = {BNO055_INIT_VALUE,
 278:Src/bno055.c  **** 	BNO055_INIT_VALUE};
 279:Src/bno055.c  **** 	s8 stat_s8 = BNO055_ERROR;
 280:Src/bno055.c  **** 	/* Check the struct  p_bno055 is empty*/
 281:Src/bno055.c  **** 	if (p_bno055 == BNO055_INIT_VALUE) {
 282:Src/bno055.c  **** 		return BNO055_E_NULL_PTR;
 283:Src/bno055.c  **** 		} else {
 284:Src/bno055.c  **** 		/*condition check for page, chip id is
 285:Src/bno055.c  **** 		available in the page zero*/
 286:Src/bno055.c  **** 		if (p_bno055->page_id != BNO055_PAGE_ZERO)
 287:Src/bno055.c  **** 			/* Write the page zero*/
 288:Src/bno055.c  **** 			stat_s8 = bno055_write_page_id(BNO055_PAGE_ZERO);
 289:Src/bno055.c  **** 		if ((stat_s8 == BNO055_SUCCESS) ||
 290:Src/bno055.c  **** 		(p_bno055->page_id == BNO055_PAGE_ZERO)) {
 291:Src/bno055.c  **** 			/* Read the two byte value of software
 292:Src/bno055.c  **** 			revision id*/
 293:Src/bno055.c  **** 			com_rslt = p_bno055->BNO055_BUS_READ_FUNC
 294:Src/bno055.c  **** 			(p_bno055->dev_addr,
 295:Src/bno055.c  **** 			BNO055_SW_REV_ID_LSB_REG,
 296:Src/bno055.c  **** 			data_u8, BNO055_LSB_MSB_READ_LENGTH);
 297:Src/bno055.c  **** 			data_u8[BNO055_SW_ID_LSB] =
 298:Src/bno055.c  **** 			BNO055_GET_BITSLICE(data_u8[BNO055_SW_ID_LSB],
ARM GAS  /tmp/ccVWLGiI.s 			page 13


 299:Src/bno055.c  **** 			BNO055_SW_REV_ID_LSB);
 300:Src/bno055.c  **** 			*sw_id_u8 = (u16)
 301:Src/bno055.c  **** 			((((u32)((u8)data_u8[BNO055_SW_ID_MSB])) <<
 302:Src/bno055.c  **** 			BNO055_SHIFT_EIGHT_BITS)
 303:Src/bno055.c  **** 			| (data_u8[BNO055_SW_ID_LSB]));
 304:Src/bno055.c  **** 		} else {
 305:Src/bno055.c  **** 		com_rslt = BNO055_ERROR;
 306:Src/bno055.c  **** 		}
 307:Src/bno055.c  **** 	}
 308:Src/bno055.c  **** 	return com_rslt;
 309:Src/bno055.c  **** }
 310:Src/bno055.c  **** /*!
 311:Src/bno055.c  ****  *	@brief This API reads page id
 312:Src/bno055.c  ****  *	from register 0x07 it is a byte of data
 313:Src/bno055.c  ****  *
 314:Src/bno055.c  ****  *
 315:Src/bno055.c  ****  *	@param page_id_u8 : The value of page id
 316:Src/bno055.c  ****  *
 317:Src/bno055.c  ****  *	BNO055_PAGE_ZERO -> 0x00
 318:Src/bno055.c  ****  *	BNO055_PAGE_ONE  -> 0x01
 319:Src/bno055.c  ****  *
 320:Src/bno055.c  ****  *	@return results of bus communication function
 321:Src/bno055.c  ****  *	@retval 0 -> BNO055_SUCCESS
 322:Src/bno055.c  ****  *	@retval 1 -> BNO055_ERROR
 323:Src/bno055.c  ****  *
 324:Src/bno055.c  ****  *
 325:Src/bno055.c  ****  */
 326:Src/bno055.c  **** BNO055_RETURN_FUNCTION_TYPE bno055_read_page_id(u8 *page_id_u8)
 327:Src/bno055.c  **** {
 367              		.loc 1 327 0
 368              		.cfi_startproc
 369              		@ args = 0, pretend = 0, frame = 8
 370              		@ frame_needed = 0, uses_anonymous_args = 0
 371              	.LVL36:
 372 0000 70B5     		push	{r4, r5, r6, lr}
 373              	.LCFI11:
 374              		.cfi_def_cfa_offset 16
 375              		.cfi_offset 4, -16
 376              		.cfi_offset 5, -12
 377              		.cfi_offset 6, -8
 378              		.cfi_offset 14, -4
 328:Src/bno055.c  **** 	/* Variable used to return value of
 329:Src/bno055.c  **** 	communication routine*/
 330:Src/bno055.c  **** 	BNO055_RETURN_FUNCTION_TYPE com_rslt = BNO055_ERROR;
 331:Src/bno055.c  **** 	u8 data_u8 = BNO055_INIT_VALUE;
 332:Src/bno055.c  **** 	/* Check the struct p_bno055 is empty */
 333:Src/bno055.c  **** 	if (p_bno055 == BNO055_INIT_VALUE) {
 379              		.loc 1 333 0
 380 0002 0F4D     		ldr	r5, .L22
 327:Src/bno055.c  **** 	/* Variable used to return value of
 381              		.loc 1 327 0
 382 0004 82B0     		sub	sp, sp, #8
 383              	.LCFI12:
 384              		.cfi_def_cfa_offset 24
 385              		.loc 1 333 0
 386 0006 2B68     		ldr	r3, [r5]
 331:Src/bno055.c  **** 	/* Check the struct p_bno055 is empty */
ARM GAS  /tmp/ccVWLGiI.s 			page 14


 387              		.loc 1 331 0
 388 0008 0022     		movs	r2, #0
 389 000a 8DF80720 		strb	r2, [sp, #7]
 390              		.loc 1 333 0
 391 000e A3B1     		cbz	r3, .L18
 334:Src/bno055.c  **** 		return BNO055_E_NULL_PTR;
 335:Src/bno055.c  **** 		} else {
 336:Src/bno055.c  **** 		/* Read the page id form 0x07*/
 337:Src/bno055.c  **** 		com_rslt = p_bno055->BNO055_BUS_READ_FUNC
 392              		.loc 1 337 0
 393 0010 0721     		movs	r1, #7
 394 0012 0446     		mov	r4, r0
 395 0014 1E69     		ldr	r6, [r3, #16]
 396 0016 587A     		ldrb	r0, [r3, #9]	@ zero_extendqisi2
 397              	.LVL37:
 398 0018 0DEB0102 		add	r2, sp, r1
 399 001c 0123     		movs	r3, #1
 400 001e B047     		blx	r6
 401              	.LVL38:
 338:Src/bno055.c  **** 		(p_bno055->dev_addr,
 339:Src/bno055.c  **** 		BNO055_PAGE_ID_REG, &data_u8, BNO055_GEN_READ_WRITE_LENGTH);
 340:Src/bno055.c  **** 		if (com_rslt == BNO055_SUCCESS) {
 402              		.loc 1 340 0
 403 0020 18B1     		cbz	r0, .L21
 341:Src/bno055.c  **** 			data_u8 = BNO055_GET_BITSLICE(data_u8,
 342:Src/bno055.c  **** 			BNO055_PAGE_ID);
 343:Src/bno055.c  **** 			*page_id_u8 = data_u8;
 344:Src/bno055.c  **** 			p_bno055->page_id = data_u8;
 345:Src/bno055.c  **** 		} else {
 346:Src/bno055.c  **** 		com_rslt = BNO055_ERROR;
 404              		.loc 1 346 0
 405 0022 FF20     		movs	r0, #255
 406              	.LVL39:
 407              	.L17:
 347:Src/bno055.c  **** 		}
 348:Src/bno055.c  **** 	}
 349:Src/bno055.c  **** 	return com_rslt;
 350:Src/bno055.c  **** }
 408              		.loc 1 350 0
 409 0024 40B2     		sxtb	r0, r0
 410 0026 02B0     		add	sp, sp, #8
 411              	.LCFI13:
 412              		.cfi_remember_state
 413              		.cfi_def_cfa_offset 16
 414              		@ sp needed
 415 0028 70BD     		pop	{r4, r5, r6, pc}
 416              	.LVL40:
 417              	.L21:
 418              	.LCFI14:
 419              		.cfi_restore_state
 341:Src/bno055.c  **** 			data_u8 = BNO055_GET_BITSLICE(data_u8,
 420              		.loc 1 341 0
 421 002a 9DF80730 		ldrb	r3, [sp, #7]	@ zero_extendqisi2
 344:Src/bno055.c  **** 		} else {
 422              		.loc 1 344 0
 423 002e 2A68     		ldr	r2, [r5]
 424              		.loc 1 350 0
ARM GAS  /tmp/ccVWLGiI.s 			page 15


 425 0030 40B2     		sxtb	r0, r0
 343:Src/bno055.c  **** 			p_bno055->page_id = data_u8;
 426              		.loc 1 343 0
 427 0032 2370     		strb	r3, [r4]
 344:Src/bno055.c  **** 		} else {
 428              		.loc 1 344 0
 429 0034 1371     		strb	r3, [r2, #4]
 430              		.loc 1 350 0
 431 0036 02B0     		add	sp, sp, #8
 432              	.LCFI15:
 433              		.cfi_remember_state
 434              		.cfi_def_cfa_offset 16
 435              		@ sp needed
 436 0038 70BD     		pop	{r4, r5, r6, pc}
 437              	.LVL41:
 438              	.L18:
 439              	.LCFI16:
 440              		.cfi_restore_state
 334:Src/bno055.c  **** 		} else {
 441              		.loc 1 334 0
 442 003a 8120     		movs	r0, #129
 443              	.LVL42:
 444 003c F2E7     		b	.L17
 445              	.L23:
 446 003e 00BF     		.align	2
 447              	.L22:
 448 0040 00000000 		.word	.LANCHOR0
 449              		.cfi_endproc
 450              	.LFE5:
 452              		.section	.text.bno055_write_page_id,"ax",%progbits
 453              		.align	2
 454              		.global	bno055_write_page_id
 455              		.thumb
 456              		.thumb_func
 458              	bno055_write_page_id:
 459              	.LFB6:
 351:Src/bno055.c  **** /*!
 352:Src/bno055.c  ****  *	@brief This API used to write
 353:Src/bno055.c  ****  *	the page id register 0x07
 354:Src/bno055.c  ****  *
 355:Src/bno055.c  ****  *	@param page_id_u8 : The value of page id
 356:Src/bno055.c  ****  *
 357:Src/bno055.c  ****  *	BNO055_PAGE_ZERO -> 0x00
 358:Src/bno055.c  ****  *	BNO055_PAGE_ONE  -> 0x01
 359:Src/bno055.c  ****  *
 360:Src/bno055.c  ****  *	@return results of bus communication function
 361:Src/bno055.c  ****  *	@retval 0 -> BNO055_SUCCESS
 362:Src/bno055.c  ****  *	@retval 1 -> BNO055_ERROR
 363:Src/bno055.c  ****  *
 364:Src/bno055.c  ****  *
 365:Src/bno055.c  ****  */
 366:Src/bno055.c  **** BNO055_RETURN_FUNCTION_TYPE bno055_write_page_id(u8 page_id_u8)
 367:Src/bno055.c  **** {
 460              		.loc 1 367 0
 461              		.cfi_startproc
 462              		@ args = 0, pretend = 0, frame = 8
 463              		@ frame_needed = 0, uses_anonymous_args = 0
ARM GAS  /tmp/ccVWLGiI.s 			page 16


 464              	.LVL43:
 465 0000 70B5     		push	{r4, r5, r6, lr}
 466              	.LCFI17:
 467              		.cfi_def_cfa_offset 16
 468              		.cfi_offset 4, -16
 469              		.cfi_offset 5, -12
 470              		.cfi_offset 6, -8
 471              		.cfi_offset 14, -4
 368:Src/bno055.c  **** 	/* Variable used to return value of
 369:Src/bno055.c  **** 	communication routine*/
 370:Src/bno055.c  **** 	BNO055_RETURN_FUNCTION_TYPE com_rslt = BNO055_ERROR;
 371:Src/bno055.c  **** 	u8 data_u8r = BNO055_INIT_VALUE;
 372:Src/bno055.c  **** 	/* Check the struct p_bno055 is empty */
 373:Src/bno055.c  **** 	if (p_bno055 == BNO055_INIT_VALUE) {
 472              		.loc 1 373 0
 473 0002 134C     		ldr	r4, .L30
 367:Src/bno055.c  **** 	/* Variable used to return value of
 474              		.loc 1 367 0
 475 0004 82B0     		sub	sp, sp, #8
 476              	.LCFI18:
 477              		.cfi_def_cfa_offset 24
 478              		.loc 1 373 0
 479 0006 2368     		ldr	r3, [r4]
 371:Src/bno055.c  **** 	/* Check the struct p_bno055 is empty */
 480              		.loc 1 371 0
 481 0008 0022     		movs	r2, #0
 482 000a 8DF80720 		strb	r2, [sp, #7]
 483              		.loc 1 373 0
 484 000e EBB1     		cbz	r3, .L26
 485 0010 0646     		mov	r6, r0
 374:Src/bno055.c  **** 		return BNO055_E_NULL_PTR;
 375:Src/bno055.c  **** 		} else {
 376:Src/bno055.c  **** 			/* Read the current page*/
 377:Src/bno055.c  **** 			com_rslt = p_bno055->BNO055_BUS_READ_FUNC
 486              		.loc 1 377 0
 487 0012 1D69     		ldr	r5, [r3, #16]
 488 0014 587A     		ldrb	r0, [r3, #9]	@ zero_extendqisi2
 489              	.LVL44:
 490 0016 0DF10702 		add	r2, sp, #7
 491 001a 0721     		movs	r1, #7
 492 001c 0123     		movs	r3, #1
 493 001e A847     		blx	r5
 494              	.LVL45:
 378:Src/bno055.c  **** 			(p_bno055->dev_addr,
 379:Src/bno055.c  **** 			BNO055_PAGE_ID_REG, &data_u8r,
 380:Src/bno055.c  **** 			BNO055_GEN_READ_WRITE_LENGTH);
 381:Src/bno055.c  **** 			/* Check condition for communication BNO055_SUCCESS*/
 382:Src/bno055.c  **** 			if (com_rslt == BNO055_SUCCESS) {
 495              		.loc 1 382 0
 496 0020 18B1     		cbz	r0, .L29
 383:Src/bno055.c  **** 				data_u8r = BNO055_SET_BITSLICE(data_u8r,
 384:Src/bno055.c  **** 				BNO055_PAGE_ID, page_id_u8);
 385:Src/bno055.c  **** 				/* Write the page id*/
 386:Src/bno055.c  **** 				com_rslt += p_bno055->BNO055_BUS_WRITE_FUNC
 387:Src/bno055.c  **** 				(p_bno055->dev_addr,
 388:Src/bno055.c  **** 				BNO055_PAGE_ID_REG,
 389:Src/bno055.c  **** 				&data_u8r, BNO055_GEN_READ_WRITE_LENGTH);
ARM GAS  /tmp/ccVWLGiI.s 			page 17


 390:Src/bno055.c  **** 				if (com_rslt == BNO055_SUCCESS)
 391:Src/bno055.c  **** 					p_bno055->page_id = page_id_u8;
 392:Src/bno055.c  **** 			} else {
 393:Src/bno055.c  **** 			com_rslt = BNO055_ERROR;
 497              		.loc 1 393 0
 498 0022 FF20     		movs	r0, #255
 499              	.LVL46:
 500              	.L25:
 394:Src/bno055.c  **** 			}
 395:Src/bno055.c  **** 		}
 396:Src/bno055.c  **** 	return com_rslt;
 397:Src/bno055.c  **** }
 501              		.loc 1 397 0
 502 0024 40B2     		sxtb	r0, r0
 503 0026 02B0     		add	sp, sp, #8
 504              	.LCFI19:
 505              		.cfi_remember_state
 506              		.cfi_def_cfa_offset 16
 507              		@ sp needed
 508 0028 70BD     		pop	{r4, r5, r6, pc}
 509              	.LVL47:
 510              	.L29:
 511              	.LCFI20:
 512              		.cfi_restore_state
 386:Src/bno055.c  **** 				(p_bno055->dev_addr,
 513              		.loc 1 386 0
 514 002a 2368     		ldr	r3, [r4]
 383:Src/bno055.c  **** 				data_u8r = BNO055_SET_BITSLICE(data_u8r,
 515              		.loc 1 383 0
 516 002c 8DF80760 		strb	r6, [sp, #7]
 386:Src/bno055.c  **** 				(p_bno055->dev_addr,
 517              		.loc 1 386 0
 518 0030 DD68     		ldr	r5, [r3, #12]
 519 0032 587A     		ldrb	r0, [r3, #9]	@ zero_extendqisi2
 520              	.LVL48:
 521 0034 0DF10702 		add	r2, sp, #7
 522 0038 0721     		movs	r1, #7
 523 003a 0123     		movs	r3, #1
 524 003c A847     		blx	r5
 525              	.LVL49:
 390:Src/bno055.c  **** 					p_bno055->page_id = page_id_u8;
 526              		.loc 1 390 0
 527 003e 0028     		cmp	r0, #0
 528 0040 F0D1     		bne	.L25
 391:Src/bno055.c  **** 			} else {
 529              		.loc 1 391 0
 530 0042 2368     		ldr	r3, [r4]
 531              		.loc 1 397 0
 532 0044 40B2     		sxtb	r0, r0
 391:Src/bno055.c  **** 			} else {
 533              		.loc 1 391 0
 534 0046 1E71     		strb	r6, [r3, #4]
 535              		.loc 1 397 0
 536 0048 02B0     		add	sp, sp, #8
 537              	.LCFI21:
 538              		.cfi_remember_state
 539              		.cfi_def_cfa_offset 16
ARM GAS  /tmp/ccVWLGiI.s 			page 18


 540              		@ sp needed
 541 004a 70BD     		pop	{r4, r5, r6, pc}
 542              	.LVL50:
 543              	.L26:
 544              	.LCFI22:
 545              		.cfi_restore_state
 374:Src/bno055.c  **** 		} else {
 546              		.loc 1 374 0
 547 004c 8120     		movs	r0, #129
 548              	.LVL51:
 549 004e E9E7     		b	.L25
 550              	.L31:
 551              		.align	2
 552              	.L30:
 553 0050 00000000 		.word	.LANCHOR0
 554              		.cfi_endproc
 555              	.LFE6:
 557              		.section	.text.bno055_read_chip_id,"ax",%progbits
 558              		.align	2
 559              		.global	bno055_read_chip_id
 560              		.thumb
 561              		.thumb_func
 563              	bno055_read_chip_id:
 564              	.LFB3:
 228:Src/bno055.c  **** 	/* Variable used to return value of
 565              		.loc 1 228 0
 566              		.cfi_startproc
 567              		@ args = 0, pretend = 0, frame = 8
 568              		@ frame_needed = 0, uses_anonymous_args = 0
 569              	.LVL52:
 570 0000 30B5     		push	{r4, r5, lr}
 571              	.LCFI23:
 572              		.cfi_def_cfa_offset 12
 573              		.cfi_offset 4, -12
 574              		.cfi_offset 5, -8
 575              		.cfi_offset 14, -4
 235:Src/bno055.c  **** 		return BNO055_E_NULL_PTR;
 576              		.loc 1 235 0
 577 0002 124C     		ldr	r4, .L43
 228:Src/bno055.c  **** 	/* Variable used to return value of
 578              		.loc 1 228 0
 579 0004 83B0     		sub	sp, sp, #12
 580              	.LCFI24:
 581              		.cfi_def_cfa_offset 24
 235:Src/bno055.c  **** 		return BNO055_E_NULL_PTR;
 582              		.loc 1 235 0
 583 0006 2368     		ldr	r3, [r4]
 232:Src/bno055.c  **** 	s8 stat_s8 = BNO055_ERROR;
 584              		.loc 1 232 0
 585 0008 0022     		movs	r2, #0
 586 000a 8DF80720 		strb	r2, [sp, #7]
 587              	.LVL53:
 235:Src/bno055.c  **** 		return BNO055_E_NULL_PTR;
 588              		.loc 1 235 0
 589 000e D3B1     		cbz	r3, .L36
 240:Src/bno055.c  **** 			/* Write the page zero*/
 590              		.loc 1 240 0
ARM GAS  /tmp/ccVWLGiI.s 			page 19


 591 0010 1979     		ldrb	r1, [r3, #4]	@ zero_extendqisi2
 592 0012 0546     		mov	r5, r0
 593 0014 61B9     		cbnz	r1, .L42
 594              	.LVL54:
 595              	.L34:
 246:Src/bno055.c  **** 			(p_bno055->dev_addr,
 596              		.loc 1 246 0
 597 0016 1C69     		ldr	r4, [r3, #16]
 598 0018 587A     		ldrb	r0, [r3, #9]	@ zero_extendqisi2
 599 001a 0021     		movs	r1, #0
 600 001c 0123     		movs	r3, #1
 601 001e 0DF10702 		add	r2, sp, #7
 602 0022 A047     		blx	r4
 603              	.LVL55:
 250:Src/bno055.c  **** 		} else {
 604              		.loc 1 250 0
 605 0024 9DF80730 		ldrb	r3, [sp, #7]	@ zero_extendqisi2
 606 0028 2B70     		strb	r3, [r5]
 607              	.LVL56:
 608              	.L33:
 256:Src/bno055.c  **** /*!
 609              		.loc 1 256 0
 610 002a 40B2     		sxtb	r0, r0
 611 002c 03B0     		add	sp, sp, #12
 612              	.LCFI25:
 613              		.cfi_remember_state
 614              		.cfi_def_cfa_offset 12
 615              		@ sp needed
 616 002e 30BD     		pop	{r4, r5, pc}
 617              	.LVL57:
 618              	.L42:
 619              	.LCFI26:
 620              		.cfi_restore_state
 242:Src/bno055.c  **** 		if ((stat_s8 == BNO055_SUCCESS) ||
 621              		.loc 1 242 0
 622 0030 1046     		mov	r0, r2
 623              	.LVL58:
 624 0032 FFF7FEFF 		bl	bno055_write_page_id
 625              	.LVL59:
 626 0036 2368     		ldr	r3, [r4]
 243:Src/bno055.c  **** 		(p_bno055->page_id == BNO055_PAGE_ZERO)) {
 627              		.loc 1 243 0
 628 0038 0028     		cmp	r0, #0
 629 003a ECD0     		beq	.L34
 630              	.LVL60:
 243:Src/bno055.c  **** 		(p_bno055->page_id == BNO055_PAGE_ZERO)) {
 631              		.loc 1 243 0 is_stmt 0 discriminator 1
 632 003c 1A79     		ldrb	r2, [r3, #4]	@ zero_extendqisi2
 252:Src/bno055.c  **** 		}
 633              		.loc 1 252 0 is_stmt 1 discriminator 1
 634 003e FF20     		movs	r0, #255
 243:Src/bno055.c  **** 		(p_bno055->page_id == BNO055_PAGE_ZERO)) {
 635              		.loc 1 243 0 discriminator 1
 636 0040 002A     		cmp	r2, #0
 637 0042 F2D1     		bne	.L33
 638 0044 E7E7     		b	.L34
 639              	.LVL61:
ARM GAS  /tmp/ccVWLGiI.s 			page 20


 640              	.L36:
 236:Src/bno055.c  **** 		} else {
 641              		.loc 1 236 0
 642 0046 8120     		movs	r0, #129
 643              	.LVL62:
 644 0048 EFE7     		b	.L33
 645              	.L44:
 646 004a 00BF     		.align	2
 647              	.L43:
 648 004c 00000000 		.word	.LANCHOR0
 649              		.cfi_endproc
 650              	.LFE3:
 652              		.section	.text.bno055_read_sw_rev_id,"ax",%progbits
 653              		.align	2
 654              		.global	bno055_read_sw_rev_id
 655              		.thumb
 656              		.thumb_func
 658              	bno055_read_sw_rev_id:
 659              	.LFB4:
 270:Src/bno055.c  **** 	/* Variable used to return value of
 660              		.loc 1 270 0
 661              		.cfi_startproc
 662              		@ args = 0, pretend = 0, frame = 8
 663              		@ frame_needed = 0, uses_anonymous_args = 0
 664              	.LVL63:
 665 0000 30B5     		push	{r4, r5, lr}
 666              	.LCFI27:
 667              		.cfi_def_cfa_offset 12
 668              		.cfi_offset 4, -12
 669              		.cfi_offset 5, -8
 670              		.cfi_offset 14, -4
 281:Src/bno055.c  **** 		return BNO055_E_NULL_PTR;
 671              		.loc 1 281 0
 672 0002 154C     		ldr	r4, .L56
 270:Src/bno055.c  **** 	/* Variable used to return value of
 673              		.loc 1 270 0
 674 0004 83B0     		sub	sp, sp, #12
 675              	.LCFI28:
 676              		.cfi_def_cfa_offset 24
 281:Src/bno055.c  **** 		return BNO055_E_NULL_PTR;
 677              		.loc 1 281 0
 678 0006 2368     		ldr	r3, [r4]
 277:Src/bno055.c  **** 	BNO055_INIT_VALUE};
 679              		.loc 1 277 0
 680 0008 0022     		movs	r2, #0
 681 000a 8DF80420 		strb	r2, [sp, #4]
 682 000e 8DF80520 		strb	r2, [sp, #5]
 683              	.LVL64:
 281:Src/bno055.c  **** 		return BNO055_E_NULL_PTR;
 684              		.loc 1 281 0
 685 0012 F3B1     		cbz	r3, .L49
 286:Src/bno055.c  **** 			/* Write the page zero*/
 686              		.loc 1 286 0
 687 0014 1979     		ldrb	r1, [r3, #4]	@ zero_extendqisi2
 688 0016 0546     		mov	r5, r0
 689 0018 81B9     		cbnz	r1, .L55
 690              	.LVL65:
ARM GAS  /tmp/ccVWLGiI.s 			page 21


 691              	.L47:
 293:Src/bno055.c  **** 			(p_bno055->dev_addr,
 692              		.loc 1 293 0
 693 001a 0421     		movs	r1, #4
 694 001c 1C69     		ldr	r4, [r3, #16]
 695 001e 587A     		ldrb	r0, [r3, #9]	@ zero_extendqisi2
 696 0020 0DEB0102 		add	r2, sp, r1
 697 0024 0223     		movs	r3, #2
 698 0026 A047     		blx	r4
 699              	.LVL66:
 300:Src/bno055.c  **** 			((((u32)((u8)data_u8[BNO055_SW_ID_MSB])) <<
 700              		.loc 1 300 0
 701 0028 9DF80520 		ldrb	r2, [sp, #5]	@ zero_extendqisi2
 702 002c 9DF80430 		ldrb	r3, [sp, #4]	@ zero_extendqisi2
 703 0030 43EA0223 		orr	r3, r3, r2, lsl #8
 704 0034 2B80     		strh	r3, [r5]	@ movhi
 705              	.LVL67:
 706              	.L46:
 309:Src/bno055.c  **** /*!
 707              		.loc 1 309 0
 708 0036 40B2     		sxtb	r0, r0
 709 0038 03B0     		add	sp, sp, #12
 710              	.LCFI29:
 711              		.cfi_remember_state
 712              		.cfi_def_cfa_offset 12
 713              		@ sp needed
 714 003a 30BD     		pop	{r4, r5, pc}
 715              	.LVL68:
 716              	.L55:
 717              	.LCFI30:
 718              		.cfi_restore_state
 288:Src/bno055.c  **** 		if ((stat_s8 == BNO055_SUCCESS) ||
 719              		.loc 1 288 0
 720 003c 1046     		mov	r0, r2
 721              	.LVL69:
 722 003e FFF7FEFF 		bl	bno055_write_page_id
 723              	.LVL70:
 724 0042 2368     		ldr	r3, [r4]
 289:Src/bno055.c  **** 		(p_bno055->page_id == BNO055_PAGE_ZERO)) {
 725              		.loc 1 289 0
 726 0044 0028     		cmp	r0, #0
 727 0046 E8D0     		beq	.L47
 728              	.LVL71:
 289:Src/bno055.c  **** 		(p_bno055->page_id == BNO055_PAGE_ZERO)) {
 729              		.loc 1 289 0 is_stmt 0 discriminator 1
 730 0048 1A79     		ldrb	r2, [r3, #4]	@ zero_extendqisi2
 305:Src/bno055.c  **** 		}
 731              		.loc 1 305 0 is_stmt 1 discriminator 1
 732 004a FF20     		movs	r0, #255
 289:Src/bno055.c  **** 		(p_bno055->page_id == BNO055_PAGE_ZERO)) {
 733              		.loc 1 289 0 discriminator 1
 734 004c 002A     		cmp	r2, #0
 735 004e F2D1     		bne	.L46
 736 0050 E3E7     		b	.L47
 737              	.LVL72:
 738              	.L49:
 282:Src/bno055.c  **** 		} else {
ARM GAS  /tmp/ccVWLGiI.s 			page 22


 739              		.loc 1 282 0
 740 0052 8120     		movs	r0, #129
 741              	.LVL73:
 742 0054 EFE7     		b	.L46
 743              	.L57:
 744 0056 00BF     		.align	2
 745              	.L56:
 746 0058 00000000 		.word	.LANCHOR0
 747              		.cfi_endproc
 748              	.LFE4:
 750              		.section	.text.bno055_read_accel_rev_id,"ax",%progbits
 751              		.align	2
 752              		.global	bno055_read_accel_rev_id
 753              		.thumb
 754              		.thumb_func
 756              	bno055_read_accel_rev_id:
 757              	.LFB7:
 398:Src/bno055.c  **** /*!
 399:Src/bno055.c  ****  *	@brief This API reads accel revision id
 400:Src/bno055.c  ****  *	from register 0x01 it is a byte of value
 401:Src/bno055.c  ****  *
 402:Src/bno055.c  ****  *	@param accel_rev_id_u8 : The accel revision id 0xFB
 403:Src/bno055.c  ****  *
 404:Src/bno055.c  ****  *	@return results of bus communication function
 405:Src/bno055.c  ****  *	@retval 0 -> BNO055_SUCCESS
 406:Src/bno055.c  ****  *	@retval 1 -> BNO055_ERROR
 407:Src/bno055.c  ****  *
 408:Src/bno055.c  ****  *
 409:Src/bno055.c  ****  */
 410:Src/bno055.c  **** BNO055_RETURN_FUNCTION_TYPE bno055_read_accel_rev_id(
 411:Src/bno055.c  **** u8 *accel_rev_id_u8)
 412:Src/bno055.c  **** {
 758              		.loc 1 412 0
 759              		.cfi_startproc
 760              		@ args = 0, pretend = 0, frame = 8
 761              		@ frame_needed = 0, uses_anonymous_args = 0
 762              	.LVL74:
 763 0000 30B5     		push	{r4, r5, lr}
 764              	.LCFI31:
 765              		.cfi_def_cfa_offset 12
 766              		.cfi_offset 4, -12
 767              		.cfi_offset 5, -8
 768              		.cfi_offset 14, -4
 413:Src/bno055.c  **** 	/* Variable used to return value of
 414:Src/bno055.c  **** 	communication routine*/
 415:Src/bno055.c  **** 	BNO055_RETURN_FUNCTION_TYPE com_rslt = BNO055_ERROR;
 416:Src/bno055.c  **** 	u8 data_u8 = BNO055_INIT_VALUE;
 417:Src/bno055.c  **** 	s8 stat_s8 = BNO055_ERROR;
 418:Src/bno055.c  **** 	/* Check the struct p_bno055 is empty */
 419:Src/bno055.c  **** 	if (p_bno055 == BNO055_INIT_VALUE) {
 769              		.loc 1 419 0
 770 0002 124C     		ldr	r4, .L69
 412:Src/bno055.c  **** 	/* Variable used to return value of
 771              		.loc 1 412 0
 772 0004 83B0     		sub	sp, sp, #12
 773              	.LCFI32:
 774              		.cfi_def_cfa_offset 24
ARM GAS  /tmp/ccVWLGiI.s 			page 23


 775              		.loc 1 419 0
 776 0006 2268     		ldr	r2, [r4]
 416:Src/bno055.c  **** 	s8 stat_s8 = BNO055_ERROR;
 777              		.loc 1 416 0
 778 0008 0023     		movs	r3, #0
 779 000a 8DF80730 		strb	r3, [sp, #7]
 780              	.LVL75:
 781              		.loc 1 419 0
 782 000e D2B1     		cbz	r2, .L62
 420:Src/bno055.c  **** 		return BNO055_E_NULL_PTR;
 421:Src/bno055.c  **** 		} else {
 422:Src/bno055.c  **** 		/*condition check for page, chip id is
 423:Src/bno055.c  **** 		available in the page zero*/
 424:Src/bno055.c  **** 		if (p_bno055->page_id != BNO055_PAGE_ZERO)
 783              		.loc 1 424 0
 784 0010 1179     		ldrb	r1, [r2, #4]	@ zero_extendqisi2
 785 0012 0546     		mov	r5, r0
 786 0014 61B9     		cbnz	r1, .L68
 787              	.LVL76:
 788              	.L60:
 425:Src/bno055.c  **** 			/* Write the page zero*/
 426:Src/bno055.c  **** 			stat_s8 = bno055_write_page_id(BNO055_PAGE_ZERO);
 427:Src/bno055.c  **** 		if ((stat_s8 == BNO055_SUCCESS) ||
 428:Src/bno055.c  **** 		(p_bno055->page_id == BNO055_PAGE_ZERO)) {
 429:Src/bno055.c  **** 			/* Read the accel revision id */
 430:Src/bno055.c  **** 			com_rslt = p_bno055->BNO055_BUS_READ_FUNC
 789              		.loc 1 430 0
 790 0016 0121     		movs	r1, #1
 791 0018 0B46     		mov	r3, r1
 792 001a 1469     		ldr	r4, [r2, #16]
 793 001c 507A     		ldrb	r0, [r2, #9]	@ zero_extendqisi2
 794 001e 0DF10702 		add	r2, sp, #7
 795 0022 A047     		blx	r4
 796              	.LVL77:
 431:Src/bno055.c  **** 			(p_bno055->dev_addr,
 432:Src/bno055.c  **** 			BNO055_ACCEL_REV_ID_REG,
 433:Src/bno055.c  **** 			&data_u8, BNO055_GEN_READ_WRITE_LENGTH);
 434:Src/bno055.c  **** 			*accel_rev_id_u8 = data_u8;
 797              		.loc 1 434 0
 798 0024 9DF80730 		ldrb	r3, [sp, #7]	@ zero_extendqisi2
 799 0028 2B70     		strb	r3, [r5]
 800              	.LVL78:
 801              	.L59:
 435:Src/bno055.c  **** 		} else {
 436:Src/bno055.c  **** 		com_rslt = BNO055_ERROR;
 437:Src/bno055.c  **** 		}
 438:Src/bno055.c  **** 	}
 439:Src/bno055.c  **** 	return com_rslt;
 440:Src/bno055.c  **** }
 802              		.loc 1 440 0
 803 002a 40B2     		sxtb	r0, r0
 804 002c 03B0     		add	sp, sp, #12
 805              	.LCFI33:
 806              		.cfi_remember_state
 807              		.cfi_def_cfa_offset 12
 808              		@ sp needed
 809 002e 30BD     		pop	{r4, r5, pc}
ARM GAS  /tmp/ccVWLGiI.s 			page 24


 810              	.LVL79:
 811              	.L68:
 812              	.LCFI34:
 813              		.cfi_restore_state
 426:Src/bno055.c  **** 		if ((stat_s8 == BNO055_SUCCESS) ||
 814              		.loc 1 426 0
 815 0030 1846     		mov	r0, r3
 816              	.LVL80:
 817 0032 FFF7FEFF 		bl	bno055_write_page_id
 818              	.LVL81:
 819 0036 2268     		ldr	r2, [r4]
 427:Src/bno055.c  **** 		(p_bno055->page_id == BNO055_PAGE_ZERO)) {
 820              		.loc 1 427 0
 821 0038 0028     		cmp	r0, #0
 822 003a ECD0     		beq	.L60
 823              	.LVL82:
 427:Src/bno055.c  **** 		(p_bno055->page_id == BNO055_PAGE_ZERO)) {
 824              		.loc 1 427 0 is_stmt 0 discriminator 1
 825 003c 1379     		ldrb	r3, [r2, #4]	@ zero_extendqisi2
 436:Src/bno055.c  **** 		}
 826              		.loc 1 436 0 is_stmt 1 discriminator 1
 827 003e FF20     		movs	r0, #255
 427:Src/bno055.c  **** 		(p_bno055->page_id == BNO055_PAGE_ZERO)) {
 828              		.loc 1 427 0 discriminator 1
 829 0040 002B     		cmp	r3, #0
 830 0042 F2D1     		bne	.L59
 831 0044 E7E7     		b	.L60
 832              	.LVL83:
 833              	.L62:
 420:Src/bno055.c  **** 		} else {
 834              		.loc 1 420 0
 835 0046 8120     		movs	r0, #129
 836              	.LVL84:
 837 0048 EFE7     		b	.L59
 838              	.L70:
 839 004a 00BF     		.align	2
 840              	.L69:
 841 004c 00000000 		.word	.LANCHOR0
 842              		.cfi_endproc
 843              	.LFE7:
 845              		.section	.text.bno055_read_mag_rev_id,"ax",%progbits
 846              		.align	2
 847              		.global	bno055_read_mag_rev_id
 848              		.thumb
 849              		.thumb_func
 851              	bno055_read_mag_rev_id:
 852              	.LFB8:
 441:Src/bno055.c  **** /*!
 442:Src/bno055.c  ****  *	@brief This API reads mag revision id
 443:Src/bno055.c  ****  *	from register 0x02 it is a byte of value
 444:Src/bno055.c  ****  *
 445:Src/bno055.c  ****  *	@param mag_rev_id_u8 : The mag revision id 0x32
 446:Src/bno055.c  ****  *
 447:Src/bno055.c  ****  *	@return results of bus communication function
 448:Src/bno055.c  ****  *	@retval 0 -> BNO055_SUCCESS
 449:Src/bno055.c  ****  *	@retval 1 -> BNO055_ERROR
 450:Src/bno055.c  ****  *
ARM GAS  /tmp/ccVWLGiI.s 			page 25


 451:Src/bno055.c  ****  *
 452:Src/bno055.c  ****  */
 453:Src/bno055.c  **** BNO055_RETURN_FUNCTION_TYPE bno055_read_mag_rev_id(
 454:Src/bno055.c  **** u8 *mag_rev_id_u8)
 455:Src/bno055.c  **** {
 853              		.loc 1 455 0
 854              		.cfi_startproc
 855              		@ args = 0, pretend = 0, frame = 8
 856              		@ frame_needed = 0, uses_anonymous_args = 0
 857              	.LVL85:
 858 0000 30B5     		push	{r4, r5, lr}
 859              	.LCFI35:
 860              		.cfi_def_cfa_offset 12
 861              		.cfi_offset 4, -12
 862              		.cfi_offset 5, -8
 863              		.cfi_offset 14, -4
 456:Src/bno055.c  **** 	/* Variable used to return value of
 457:Src/bno055.c  **** 	communication routine*/
 458:Src/bno055.c  **** 	BNO055_RETURN_FUNCTION_TYPE com_rslt = BNO055_ERROR;
 459:Src/bno055.c  **** 	u8 data_u8 = BNO055_INIT_VALUE;
 460:Src/bno055.c  **** 	s8 stat_s8 = BNO055_ERROR;
 461:Src/bno055.c  **** 	/* Check the struct p_bno055 is empty */
 462:Src/bno055.c  **** 	if (p_bno055 == BNO055_INIT_VALUE) {
 864              		.loc 1 462 0
 865 0002 124C     		ldr	r4, .L82
 455:Src/bno055.c  **** 	/* Variable used to return value of
 866              		.loc 1 455 0
 867 0004 83B0     		sub	sp, sp, #12
 868              	.LCFI36:
 869              		.cfi_def_cfa_offset 24
 870              		.loc 1 462 0
 871 0006 2368     		ldr	r3, [r4]
 459:Src/bno055.c  **** 	s8 stat_s8 = BNO055_ERROR;
 872              		.loc 1 459 0
 873 0008 0022     		movs	r2, #0
 874 000a 8DF80720 		strb	r2, [sp, #7]
 875              	.LVL86:
 876              		.loc 1 462 0
 877 000e D3B1     		cbz	r3, .L75
 463:Src/bno055.c  **** 		return BNO055_E_NULL_PTR;
 464:Src/bno055.c  **** 		} else {
 465:Src/bno055.c  **** 		/*condition check for page, chip id is
 466:Src/bno055.c  **** 		available in the page zero*/
 467:Src/bno055.c  **** 		if (p_bno055->page_id != BNO055_PAGE_ZERO)
 878              		.loc 1 467 0
 879 0010 1979     		ldrb	r1, [r3, #4]	@ zero_extendqisi2
 880 0012 0546     		mov	r5, r0
 881 0014 61B9     		cbnz	r1, .L81
 882              	.LVL87:
 883              	.L73:
 468:Src/bno055.c  **** 			/* Write the page zero*/
 469:Src/bno055.c  **** 			stat_s8 = bno055_write_page_id(BNO055_PAGE_ZERO);
 470:Src/bno055.c  **** 			if ((stat_s8 == BNO055_SUCCESS) ||
 471:Src/bno055.c  **** 			(p_bno055->page_id == BNO055_PAGE_ZERO)) {
 472:Src/bno055.c  **** 				/* Read the mag revision id */
 473:Src/bno055.c  **** 				com_rslt = p_bno055->BNO055_BUS_READ_FUNC
 884              		.loc 1 473 0
ARM GAS  /tmp/ccVWLGiI.s 			page 26


 885 0016 1C69     		ldr	r4, [r3, #16]
 886 0018 587A     		ldrb	r0, [r3, #9]	@ zero_extendqisi2
 887 001a 0221     		movs	r1, #2
 888 001c 0123     		movs	r3, #1
 889 001e 0DF10702 		add	r2, sp, #7
 890 0022 A047     		blx	r4
 891              	.LVL88:
 474:Src/bno055.c  **** 				(p_bno055->dev_addr,
 475:Src/bno055.c  **** 				BNO055_MAG_REV_ID_REG,
 476:Src/bno055.c  **** 				&data_u8, BNO055_GEN_READ_WRITE_LENGTH);
 477:Src/bno055.c  **** 				*mag_rev_id_u8 = data_u8;
 892              		.loc 1 477 0
 893 0024 9DF80730 		ldrb	r3, [sp, #7]	@ zero_extendqisi2
 894 0028 2B70     		strb	r3, [r5]
 895              	.LVL89:
 896              	.L72:
 478:Src/bno055.c  **** 			} else {
 479:Src/bno055.c  **** 			com_rslt = BNO055_ERROR;
 480:Src/bno055.c  **** 			}
 481:Src/bno055.c  **** 		}
 482:Src/bno055.c  **** 	return com_rslt;
 483:Src/bno055.c  **** }
 897              		.loc 1 483 0
 898 002a 40B2     		sxtb	r0, r0
 899 002c 03B0     		add	sp, sp, #12
 900              	.LCFI37:
 901              		.cfi_remember_state
 902              		.cfi_def_cfa_offset 12
 903              		@ sp needed
 904 002e 30BD     		pop	{r4, r5, pc}
 905              	.LVL90:
 906              	.L81:
 907              	.LCFI38:
 908              		.cfi_restore_state
 469:Src/bno055.c  **** 			if ((stat_s8 == BNO055_SUCCESS) ||
 909              		.loc 1 469 0
 910 0030 1046     		mov	r0, r2
 911              	.LVL91:
 912 0032 FFF7FEFF 		bl	bno055_write_page_id
 913              	.LVL92:
 914 0036 2368     		ldr	r3, [r4]
 470:Src/bno055.c  **** 			(p_bno055->page_id == BNO055_PAGE_ZERO)) {
 915              		.loc 1 470 0
 916 0038 0028     		cmp	r0, #0
 917 003a ECD0     		beq	.L73
 918              	.LVL93:
 470:Src/bno055.c  **** 			(p_bno055->page_id == BNO055_PAGE_ZERO)) {
 919              		.loc 1 470 0 is_stmt 0 discriminator 1
 920 003c 1A79     		ldrb	r2, [r3, #4]	@ zero_extendqisi2
 479:Src/bno055.c  **** 			}
 921              		.loc 1 479 0 is_stmt 1 discriminator 1
 922 003e FF20     		movs	r0, #255
 470:Src/bno055.c  **** 			(p_bno055->page_id == BNO055_PAGE_ZERO)) {
 923              		.loc 1 470 0 discriminator 1
 924 0040 002A     		cmp	r2, #0
 925 0042 F2D1     		bne	.L72
 926 0044 E7E7     		b	.L73
ARM GAS  /tmp/ccVWLGiI.s 			page 27


 927              	.LVL94:
 928              	.L75:
 463:Src/bno055.c  **** 		} else {
 929              		.loc 1 463 0
 930 0046 8120     		movs	r0, #129
 931              	.LVL95:
 932 0048 EFE7     		b	.L72
 933              	.L83:
 934 004a 00BF     		.align	2
 935              	.L82:
 936 004c 00000000 		.word	.LANCHOR0
 937              		.cfi_endproc
 938              	.LFE8:
 940              		.section	.text.bno055_read_gyro_rev_id,"ax",%progbits
 941              		.align	2
 942              		.global	bno055_read_gyro_rev_id
 943              		.thumb
 944              		.thumb_func
 946              	bno055_read_gyro_rev_id:
 947              	.LFB9:
 484:Src/bno055.c  **** /*!
 485:Src/bno055.c  ****  *	@brief This API reads gyro revision id
 486:Src/bno055.c  ****  *	from register 0x03 it is a byte of value
 487:Src/bno055.c  ****  *
 488:Src/bno055.c  ****  *	@param gyro_rev_id_u8 : The gyro revision id 0xF0
 489:Src/bno055.c  ****  *
 490:Src/bno055.c  ****  *
 491:Src/bno055.c  ****  *
 492:Src/bno055.c  ****  *	@return results of bus communication function
 493:Src/bno055.c  ****  *	@retval 0 -> BNO055_SUCCESS
 494:Src/bno055.c  ****  *	@retval 1 -> BNO055_ERROR
 495:Src/bno055.c  ****  *
 496:Src/bno055.c  ****  *
 497:Src/bno055.c  ****  */
 498:Src/bno055.c  **** BNO055_RETURN_FUNCTION_TYPE bno055_read_gyro_rev_id(
 499:Src/bno055.c  **** u8 *gyro_rev_id_u8)
 500:Src/bno055.c  **** {
 948              		.loc 1 500 0
 949              		.cfi_startproc
 950              		@ args = 0, pretend = 0, frame = 8
 951              		@ frame_needed = 0, uses_anonymous_args = 0
 952              	.LVL96:
 953 0000 30B5     		push	{r4, r5, lr}
 954              	.LCFI39:
 955              		.cfi_def_cfa_offset 12
 956              		.cfi_offset 4, -12
 957              		.cfi_offset 5, -8
 958              		.cfi_offset 14, -4
 501:Src/bno055.c  **** 	/* Variable used to return value of
 502:Src/bno055.c  **** 	communication routine*/
 503:Src/bno055.c  **** 	BNO055_RETURN_FUNCTION_TYPE com_rslt = BNO055_ERROR;
 504:Src/bno055.c  **** 	u8 data_u8 = BNO055_INIT_VALUE;
 505:Src/bno055.c  **** 	s8 stat_s8 = BNO055_ERROR;
 506:Src/bno055.c  **** 	/* Check the struct p_bno055 is empty */
 507:Src/bno055.c  **** 	if (p_bno055 == BNO055_INIT_VALUE) {
 959              		.loc 1 507 0
 960 0002 124C     		ldr	r4, .L95
ARM GAS  /tmp/ccVWLGiI.s 			page 28


 500:Src/bno055.c  **** 	/* Variable used to return value of
 961              		.loc 1 500 0
 962 0004 83B0     		sub	sp, sp, #12
 963              	.LCFI40:
 964              		.cfi_def_cfa_offset 24
 965              		.loc 1 507 0
 966 0006 2368     		ldr	r3, [r4]
 504:Src/bno055.c  **** 	s8 stat_s8 = BNO055_ERROR;
 967              		.loc 1 504 0
 968 0008 0022     		movs	r2, #0
 969 000a 8DF80720 		strb	r2, [sp, #7]
 970              	.LVL97:
 971              		.loc 1 507 0
 972 000e D3B1     		cbz	r3, .L88
 508:Src/bno055.c  **** 		return BNO055_E_NULL_PTR;
 509:Src/bno055.c  **** 		} else {
 510:Src/bno055.c  **** 		/*condition check for page, chip id is
 511:Src/bno055.c  **** 		available in the page zero*/
 512:Src/bno055.c  **** 		if (p_bno055->page_id != BNO055_PAGE_ZERO)
 973              		.loc 1 512 0
 974 0010 1979     		ldrb	r1, [r3, #4]	@ zero_extendqisi2
 975 0012 0546     		mov	r5, r0
 976 0014 61B9     		cbnz	r1, .L94
 977              	.LVL98:
 978              	.L86:
 513:Src/bno055.c  **** 			/* Write the page zero*/
 514:Src/bno055.c  **** 			stat_s8 = bno055_write_page_id(BNO055_PAGE_ZERO);
 515:Src/bno055.c  **** 		if ((stat_s8 == BNO055_SUCCESS) ||
 516:Src/bno055.c  **** 		(p_bno055->page_id == BNO055_PAGE_ZERO)) {
 517:Src/bno055.c  **** 			/* Read the gyro revision id */
 518:Src/bno055.c  **** 			com_rslt = p_bno055->BNO055_BUS_READ_FUNC
 979              		.loc 1 518 0
 980 0016 1C69     		ldr	r4, [r3, #16]
 981 0018 587A     		ldrb	r0, [r3, #9]	@ zero_extendqisi2
 982 001a 0321     		movs	r1, #3
 983 001c 0123     		movs	r3, #1
 984 001e 0DF10702 		add	r2, sp, #7
 985 0022 A047     		blx	r4
 986              	.LVL99:
 519:Src/bno055.c  **** 			(p_bno055->dev_addr,
 520:Src/bno055.c  **** 			BNO055_GYRO_REV_ID_REG,
 521:Src/bno055.c  **** 			&data_u8, BNO055_GEN_READ_WRITE_LENGTH);
 522:Src/bno055.c  **** 			*gyro_rev_id_u8 = data_u8;
 987              		.loc 1 522 0
 988 0024 9DF80730 		ldrb	r3, [sp, #7]	@ zero_extendqisi2
 989 0028 2B70     		strb	r3, [r5]
 990              	.LVL100:
 991              	.L85:
 523:Src/bno055.c  **** 		} else {
 524:Src/bno055.c  **** 		com_rslt = BNO055_ERROR;
 525:Src/bno055.c  **** 		}
 526:Src/bno055.c  **** 	}
 527:Src/bno055.c  **** 	return com_rslt;
 528:Src/bno055.c  **** }
 992              		.loc 1 528 0
 993 002a 40B2     		sxtb	r0, r0
 994 002c 03B0     		add	sp, sp, #12
ARM GAS  /tmp/ccVWLGiI.s 			page 29


 995              	.LCFI41:
 996              		.cfi_remember_state
 997              		.cfi_def_cfa_offset 12
 998              		@ sp needed
 999 002e 30BD     		pop	{r4, r5, pc}
 1000              	.LVL101:
 1001              	.L94:
 1002              	.LCFI42:
 1003              		.cfi_restore_state
 514:Src/bno055.c  **** 		if ((stat_s8 == BNO055_SUCCESS) ||
 1004              		.loc 1 514 0
 1005 0030 1046     		mov	r0, r2
 1006              	.LVL102:
 1007 0032 FFF7FEFF 		bl	bno055_write_page_id
 1008              	.LVL103:
 1009 0036 2368     		ldr	r3, [r4]
 515:Src/bno055.c  **** 		(p_bno055->page_id == BNO055_PAGE_ZERO)) {
 1010              		.loc 1 515 0
 1011 0038 0028     		cmp	r0, #0
 1012 003a ECD0     		beq	.L86
 1013              	.LVL104:
 515:Src/bno055.c  **** 		(p_bno055->page_id == BNO055_PAGE_ZERO)) {
 1014              		.loc 1 515 0 is_stmt 0 discriminator 1
 1015 003c 1A79     		ldrb	r2, [r3, #4]	@ zero_extendqisi2
 524:Src/bno055.c  **** 		}
 1016              		.loc 1 524 0 is_stmt 1 discriminator 1
 1017 003e FF20     		movs	r0, #255
 515:Src/bno055.c  **** 		(p_bno055->page_id == BNO055_PAGE_ZERO)) {
 1018              		.loc 1 515 0 discriminator 1
 1019 0040 002A     		cmp	r2, #0
 1020 0042 F2D1     		bne	.L85
 1021 0044 E7E7     		b	.L86
 1022              	.LVL105:
 1023              	.L88:
 508:Src/bno055.c  **** 		} else {
 1024              		.loc 1 508 0
 1025 0046 8120     		movs	r0, #129
 1026              	.LVL106:
 1027 0048 EFE7     		b	.L85
 1028              	.L96:
 1029 004a 00BF     		.align	2
 1030              	.L95:
 1031 004c 00000000 		.word	.LANCHOR0
 1032              		.cfi_endproc
 1033              	.LFE9:
 1035              		.section	.text.bno055_read_bl_rev_id,"ax",%progbits
 1036              		.align	2
 1037              		.global	bno055_read_bl_rev_id
 1038              		.thumb
 1039              		.thumb_func
 1041              	bno055_read_bl_rev_id:
 1042              	.LFB10:
 529:Src/bno055.c  **** /*!
 530:Src/bno055.c  ****  *	@brief This API used to read boot loader revision id
 531:Src/bno055.c  ****  *	from register 0x06 it is a byte of value
 532:Src/bno055.c  ****  *
 533:Src/bno055.c  ****  *	@param bl_rev_id_u8 : The boot loader revision id
ARM GAS  /tmp/ccVWLGiI.s 			page 30


 534:Src/bno055.c  ****  *
 535:Src/bno055.c  ****  *
 536:Src/bno055.c  ****  *	@return results of bus communication function
 537:Src/bno055.c  ****  *	@retval 0 -> BNO055_SUCCESS
 538:Src/bno055.c  ****  *	@retval 1 -> BNO055_ERROR
 539:Src/bno055.c  ****  *
 540:Src/bno055.c  ****  *
 541:Src/bno055.c  ****  */
 542:Src/bno055.c  **** BNO055_RETURN_FUNCTION_TYPE bno055_read_bl_rev_id(
 543:Src/bno055.c  **** u8 *bl_rev_id_u8)
 544:Src/bno055.c  **** {
 1043              		.loc 1 544 0
 1044              		.cfi_startproc
 1045              		@ args = 0, pretend = 0, frame = 8
 1046              		@ frame_needed = 0, uses_anonymous_args = 0
 1047              	.LVL107:
 1048 0000 30B5     		push	{r4, r5, lr}
 1049              	.LCFI43:
 1050              		.cfi_def_cfa_offset 12
 1051              		.cfi_offset 4, -12
 1052              		.cfi_offset 5, -8
 1053              		.cfi_offset 14, -4
 545:Src/bno055.c  **** 	/* Variable used to return value of
 546:Src/bno055.c  **** 	communication routine*/
 547:Src/bno055.c  **** 	BNO055_RETURN_FUNCTION_TYPE com_rslt = BNO055_ERROR;
 548:Src/bno055.c  **** 	u8 data_u8 = BNO055_INIT_VALUE;
 549:Src/bno055.c  **** 	s8 stat_s8 = BNO055_ERROR;
 550:Src/bno055.c  **** 	/* Check the struct p_bno055 is empty */
 551:Src/bno055.c  **** 	if (p_bno055 == BNO055_INIT_VALUE) {
 1054              		.loc 1 551 0
 1055 0002 124C     		ldr	r4, .L108
 544:Src/bno055.c  **** 	/* Variable used to return value of
 1056              		.loc 1 544 0
 1057 0004 83B0     		sub	sp, sp, #12
 1058              	.LCFI44:
 1059              		.cfi_def_cfa_offset 24
 1060              		.loc 1 551 0
 1061 0006 2368     		ldr	r3, [r4]
 548:Src/bno055.c  **** 	s8 stat_s8 = BNO055_ERROR;
 1062              		.loc 1 548 0
 1063 0008 0022     		movs	r2, #0
 1064 000a 8DF80720 		strb	r2, [sp, #7]
 1065              	.LVL108:
 1066              		.loc 1 551 0
 1067 000e D3B1     		cbz	r3, .L101
 552:Src/bno055.c  **** 		return BNO055_E_NULL_PTR;
 553:Src/bno055.c  **** 		} else {
 554:Src/bno055.c  **** 		/*condition check for page, chip id is
 555:Src/bno055.c  **** 		available in the page zero*/
 556:Src/bno055.c  **** 		if (p_bno055->page_id != BNO055_PAGE_ZERO)
 1068              		.loc 1 556 0
 1069 0010 1979     		ldrb	r1, [r3, #4]	@ zero_extendqisi2
 1070 0012 0546     		mov	r5, r0
 1071 0014 61B9     		cbnz	r1, .L107
 1072              	.LVL109:
 1073              	.L99:
 557:Src/bno055.c  **** 			/* Write the page zero*/
ARM GAS  /tmp/ccVWLGiI.s 			page 31


 558:Src/bno055.c  **** 			stat_s8 = bno055_write_page_id(BNO055_PAGE_ZERO);
 559:Src/bno055.c  **** 		if ((stat_s8 == BNO055_SUCCESS) ||
 560:Src/bno055.c  **** 		(p_bno055->page_id == BNO055_PAGE_ZERO)) {
 561:Src/bno055.c  **** 			/* Read the boot loader revision id */
 562:Src/bno055.c  **** 			com_rslt = p_bno055->BNO055_BUS_READ_FUNC
 1074              		.loc 1 562 0
 1075 0016 1C69     		ldr	r4, [r3, #16]
 1076 0018 587A     		ldrb	r0, [r3, #9]	@ zero_extendqisi2
 1077 001a 0621     		movs	r1, #6
 1078 001c 0123     		movs	r3, #1
 1079 001e 0DF10702 		add	r2, sp, #7
 1080 0022 A047     		blx	r4
 1081              	.LVL110:
 563:Src/bno055.c  **** 			(p_bno055->dev_addr,
 564:Src/bno055.c  **** 			BNO055_BL_REV_ID_REG,
 565:Src/bno055.c  **** 			&data_u8, BNO055_GEN_READ_WRITE_LENGTH);
 566:Src/bno055.c  **** 			*bl_rev_id_u8 = data_u8;
 1082              		.loc 1 566 0
 1083 0024 9DF80730 		ldrb	r3, [sp, #7]	@ zero_extendqisi2
 1084 0028 2B70     		strb	r3, [r5]
 1085              	.LVL111:
 1086              	.L98:
 567:Src/bno055.c  **** 		} else {
 568:Src/bno055.c  **** 		com_rslt = BNO055_ERROR;
 569:Src/bno055.c  **** 		}
 570:Src/bno055.c  **** 	}
 571:Src/bno055.c  **** 	return com_rslt;
 572:Src/bno055.c  **** }
 1087              		.loc 1 572 0
 1088 002a 40B2     		sxtb	r0, r0
 1089 002c 03B0     		add	sp, sp, #12
 1090              	.LCFI45:
 1091              		.cfi_remember_state
 1092              		.cfi_def_cfa_offset 12
 1093              		@ sp needed
 1094 002e 30BD     		pop	{r4, r5, pc}
 1095              	.LVL112:
 1096              	.L107:
 1097              	.LCFI46:
 1098              		.cfi_restore_state
 558:Src/bno055.c  **** 		if ((stat_s8 == BNO055_SUCCESS) ||
 1099              		.loc 1 558 0
 1100 0030 1046     		mov	r0, r2
 1101              	.LVL113:
 1102 0032 FFF7FEFF 		bl	bno055_write_page_id
 1103              	.LVL114:
 1104 0036 2368     		ldr	r3, [r4]
 559:Src/bno055.c  **** 		(p_bno055->page_id == BNO055_PAGE_ZERO)) {
 1105              		.loc 1 559 0
 1106 0038 0028     		cmp	r0, #0
 1107 003a ECD0     		beq	.L99
 1108              	.LVL115:
 559:Src/bno055.c  **** 		(p_bno055->page_id == BNO055_PAGE_ZERO)) {
 1109              		.loc 1 559 0 is_stmt 0 discriminator 1
 1110 003c 1A79     		ldrb	r2, [r3, #4]	@ zero_extendqisi2
 568:Src/bno055.c  **** 		}
 1111              		.loc 1 568 0 is_stmt 1 discriminator 1
ARM GAS  /tmp/ccVWLGiI.s 			page 32


 1112 003e FF20     		movs	r0, #255
 559:Src/bno055.c  **** 		(p_bno055->page_id == BNO055_PAGE_ZERO)) {
 1113              		.loc 1 559 0 discriminator 1
 1114 0040 002A     		cmp	r2, #0
 1115 0042 F2D1     		bne	.L98
 1116 0044 E7E7     		b	.L99
 1117              	.LVL116:
 1118              	.L101:
 552:Src/bno055.c  **** 		} else {
 1119              		.loc 1 552 0
 1120 0046 8120     		movs	r0, #129
 1121              	.LVL117:
 1122 0048 EFE7     		b	.L98
 1123              	.L109:
 1124 004a 00BF     		.align	2
 1125              	.L108:
 1126 004c 00000000 		.word	.LANCHOR0
 1127              		.cfi_endproc
 1128              	.LFE10:
 1130              		.section	.text.bno055_read_accel_x,"ax",%progbits
 1131              		.align	2
 1132              		.global	bno055_read_accel_x
 1133              		.thumb
 1134              		.thumb_func
 1136              	bno055_read_accel_x:
 1137              	.LFB11:
 573:Src/bno055.c  **** /*!
 574:Src/bno055.c  ****  *	@brief This API reads acceleration data X values
 575:Src/bno055.c  ****  *	from register 0x08 and 0x09 it is a two byte data
 576:Src/bno055.c  ****  *
 577:Src/bno055.c  ****  *
 578:Src/bno055.c  ****  *
 579:Src/bno055.c  ****  *
 580:Src/bno055.c  ****  *	@param accel_x_s16 : The X raw data
 581:Src/bno055.c  ****  *
 582:Src/bno055.c  ****  *
 583:Src/bno055.c  ****  *
 584:Src/bno055.c  ****  *	@return results of bus communication function
 585:Src/bno055.c  ****  *	@retval 0 -> BNO055_SUCCESS
 586:Src/bno055.c  ****  *	@retval 1 -> BNO055_ERROR
 587:Src/bno055.c  ****  *
 588:Src/bno055.c  ****  *
 589:Src/bno055.c  ****  */
 590:Src/bno055.c  **** BNO055_RETURN_FUNCTION_TYPE bno055_read_accel_x(s16 *accel_x_s16)
 591:Src/bno055.c  **** {
 1138              		.loc 1 591 0
 1139              		.cfi_startproc
 1140              		@ args = 0, pretend = 0, frame = 8
 1141              		@ frame_needed = 0, uses_anonymous_args = 0
 1142              	.LVL118:
 1143 0000 30B5     		push	{r4, r5, lr}
 1144              	.LCFI47:
 1145              		.cfi_def_cfa_offset 12
 1146              		.cfi_offset 4, -12
 1147              		.cfi_offset 5, -8
 1148              		.cfi_offset 14, -4
 592:Src/bno055.c  **** 	/* Variable used to return value of
ARM GAS  /tmp/ccVWLGiI.s 			page 33


 593:Src/bno055.c  **** 	communication routine*/
 594:Src/bno055.c  **** 	BNO055_RETURN_FUNCTION_TYPE com_rslt = BNO055_ERROR;
 595:Src/bno055.c  **** 	/* Array holding the accel x value
 596:Src/bno055.c  **** 	data_u8[BNO055_SENSOR_DATA_LSB] - x-LSB
 597:Src/bno055.c  **** 	data_u8[BNO055_SENSOR_DATA_MSB] - x-MSB
 598:Src/bno055.c  **** 	*/
 599:Src/bno055.c  **** 	u8 data_u8[BNO055_ACCEL_DATA_SIZE] = {BNO055_INIT_VALUE,
 600:Src/bno055.c  **** 	BNO055_INIT_VALUE};
 601:Src/bno055.c  **** 	s8 stat_s8 = BNO055_ERROR;
 602:Src/bno055.c  **** 	/* Check the struct p_bno055 is empty */
 603:Src/bno055.c  **** 	if (p_bno055 == BNO055_INIT_VALUE) {
 1149              		.loc 1 603 0
 1150 0002 144C     		ldr	r4, .L121
 591:Src/bno055.c  **** 	/* Variable used to return value of
 1151              		.loc 1 591 0
 1152 0004 83B0     		sub	sp, sp, #12
 1153              	.LCFI48:
 1154              		.cfi_def_cfa_offset 24
 1155              		.loc 1 603 0
 1156 0006 2368     		ldr	r3, [r4]
 599:Src/bno055.c  **** 	BNO055_INIT_VALUE};
 1157              		.loc 1 599 0
 1158 0008 0022     		movs	r2, #0
 1159 000a 8DF80420 		strb	r2, [sp, #4]
 1160 000e 8DF80520 		strb	r2, [sp, #5]
 1161              	.LVL119:
 1162              		.loc 1 603 0
 1163 0012 EBB1     		cbz	r3, .L114
 604:Src/bno055.c  **** 		return BNO055_E_NULL_PTR;
 605:Src/bno055.c  **** 		} else {
 606:Src/bno055.c  **** 		if (p_bno055->page_id != BNO055_PAGE_ZERO)
 1164              		.loc 1 606 0
 1165 0014 1979     		ldrb	r1, [r3, #4]	@ zero_extendqisi2
 1166 0016 0546     		mov	r5, r0
 1167 0018 79B9     		cbnz	r1, .L120
 1168              	.LVL120:
 1169              	.L112:
 607:Src/bno055.c  **** 			/* Write the page zero*/
 608:Src/bno055.c  **** 			stat_s8 = bno055_write_page_id(BNO055_PAGE_ZERO);
 609:Src/bno055.c  **** 		if ((stat_s8 == BNO055_SUCCESS) ||
 610:Src/bno055.c  **** 		(p_bno055->page_id == BNO055_PAGE_ZERO)) {
 611:Src/bno055.c  **** 			/* Read the accel x axis two byte value*/
 612:Src/bno055.c  **** 			com_rslt = p_bno055->BNO055_BUS_READ_FUNC
 1170              		.loc 1 612 0
 1171 001a 1C69     		ldr	r4, [r3, #16]
 1172 001c 587A     		ldrb	r0, [r3, #9]	@ zero_extendqisi2
 1173 001e 01AA     		add	r2, sp, #4
 1174 0020 0223     		movs	r3, #2
 1175 0022 0821     		movs	r1, #8
 1176 0024 A047     		blx	r4
 1177              	.LVL121:
 613:Src/bno055.c  **** 			(p_bno055->dev_addr,
 614:Src/bno055.c  **** 			BNO055_ACCEL_DATA_X_LSB_VALUEX_REG,
 615:Src/bno055.c  **** 			data_u8, BNO055_LSB_MSB_READ_LENGTH);
 616:Src/bno055.c  **** 			data_u8[BNO055_SENSOR_DATA_LSB] =
 617:Src/bno055.c  **** 			BNO055_GET_BITSLICE(data_u8[BNO055_SENSOR_DATA_LSB],
 618:Src/bno055.c  **** 			BNO055_ACCEL_DATA_X_LSB_VALUEX);
ARM GAS  /tmp/ccVWLGiI.s 			page 34


 619:Src/bno055.c  **** 			data_u8[BNO055_SENSOR_DATA_MSB] =
 620:Src/bno055.c  **** 			BNO055_GET_BITSLICE(data_u8[BNO055_SENSOR_DATA_MSB],
 621:Src/bno055.c  **** 			BNO055_ACCEL_DATA_X_MSB_VALUEX);
 622:Src/bno055.c  **** 			*accel_x_s16 = (s16)((((s32)
 1178              		.loc 1 622 0
 1179 0026 9DF90520 		ldrsb	r2, [sp, #5]
 1180 002a 9DF80430 		ldrb	r3, [sp, #4]	@ zero_extendqisi2
 1181 002e 43EA0223 		orr	r3, r3, r2, lsl #8
 1182 0032 2B80     		strh	r3, [r5]	@ movhi
 1183              	.LVL122:
 1184              	.L111:
 623:Src/bno055.c  **** 			(s8)(data_u8[BNO055_SENSOR_DATA_MSB])) <<
 624:Src/bno055.c  **** 			(BNO055_SHIFT_EIGHT_BITS))
 625:Src/bno055.c  **** 			| (data_u8[BNO055_SENSOR_DATA_LSB]));
 626:Src/bno055.c  **** 		} else {
 627:Src/bno055.c  **** 		com_rslt = BNO055_ERROR;
 628:Src/bno055.c  **** 		}
 629:Src/bno055.c  **** 	}
 630:Src/bno055.c  **** 	return com_rslt;
 631:Src/bno055.c  **** }
 1185              		.loc 1 631 0
 1186 0034 40B2     		sxtb	r0, r0
 1187 0036 03B0     		add	sp, sp, #12
 1188              	.LCFI49:
 1189              		.cfi_remember_state
 1190              		.cfi_def_cfa_offset 12
 1191              		@ sp needed
 1192 0038 30BD     		pop	{r4, r5, pc}
 1193              	.LVL123:
 1194              	.L120:
 1195              	.LCFI50:
 1196              		.cfi_restore_state
 608:Src/bno055.c  **** 		if ((stat_s8 == BNO055_SUCCESS) ||
 1197              		.loc 1 608 0
 1198 003a 1046     		mov	r0, r2
 1199              	.LVL124:
 1200 003c FFF7FEFF 		bl	bno055_write_page_id
 1201              	.LVL125:
 1202 0040 2368     		ldr	r3, [r4]
 609:Src/bno055.c  **** 		(p_bno055->page_id == BNO055_PAGE_ZERO)) {
 1203              		.loc 1 609 0
 1204 0042 0028     		cmp	r0, #0
 1205 0044 E9D0     		beq	.L112
 1206              	.LVL126:
 609:Src/bno055.c  **** 		(p_bno055->page_id == BNO055_PAGE_ZERO)) {
 1207              		.loc 1 609 0 is_stmt 0 discriminator 1
 1208 0046 1A79     		ldrb	r2, [r3, #4]	@ zero_extendqisi2
 627:Src/bno055.c  **** 		}
 1209              		.loc 1 627 0 is_stmt 1 discriminator 1
 1210 0048 FF20     		movs	r0, #255
 609:Src/bno055.c  **** 		(p_bno055->page_id == BNO055_PAGE_ZERO)) {
 1211              		.loc 1 609 0 discriminator 1
 1212 004a 002A     		cmp	r2, #0
 1213 004c F2D1     		bne	.L111
 1214 004e E4E7     		b	.L112
 1215              	.LVL127:
 1216              	.L114:
ARM GAS  /tmp/ccVWLGiI.s 			page 35


 604:Src/bno055.c  **** 		} else {
 1217              		.loc 1 604 0
 1218 0050 8120     		movs	r0, #129
 1219              	.LVL128:
 1220 0052 EFE7     		b	.L111
 1221              	.L122:
 1222              		.align	2
 1223              	.L121:
 1224 0054 00000000 		.word	.LANCHOR0
 1225              		.cfi_endproc
 1226              	.LFE11:
 1228              		.section	.text.bno055_read_accel_y,"ax",%progbits
 1229              		.align	2
 1230              		.global	bno055_read_accel_y
 1231              		.thumb
 1232              		.thumb_func
 1234              	bno055_read_accel_y:
 1235              	.LFB12:
 632:Src/bno055.c  **** /*!
 633:Src/bno055.c  ****  *	@brief This API reads acceleration data Y values
 634:Src/bno055.c  ****  *	from register 0x0A and 0x0B it is a two byte data
 635:Src/bno055.c  ****  *
 636:Src/bno055.c  ****  *
 637:Src/bno055.c  ****  *
 638:Src/bno055.c  ****  *
 639:Src/bno055.c  ****  *	@param accel_y_s16 : The Y raw data
 640:Src/bno055.c  ****  *
 641:Src/bno055.c  ****  *
 642:Src/bno055.c  ****  *
 643:Src/bno055.c  ****  *	@return results of bus communication function
 644:Src/bno055.c  ****  *	@retval 0 -> BNO055_SUCCESS
 645:Src/bno055.c  ****  *	@retval 1 -> BNO055_ERROR
 646:Src/bno055.c  ****  *
 647:Src/bno055.c  ****  *
 648:Src/bno055.c  ****  */
 649:Src/bno055.c  **** BNO055_RETURN_FUNCTION_TYPE bno055_read_accel_y(s16 *accel_y_s16)
 650:Src/bno055.c  **** {
 1236              		.loc 1 650 0
 1237              		.cfi_startproc
 1238              		@ args = 0, pretend = 0, frame = 8
 1239              		@ frame_needed = 0, uses_anonymous_args = 0
 1240              	.LVL129:
 1241 0000 30B5     		push	{r4, r5, lr}
 1242              	.LCFI51:
 1243              		.cfi_def_cfa_offset 12
 1244              		.cfi_offset 4, -12
 1245              		.cfi_offset 5, -8
 1246              		.cfi_offset 14, -4
 651:Src/bno055.c  **** 	/* Variable used to return value of
 652:Src/bno055.c  **** 	communication routine*/
 653:Src/bno055.c  **** 	BNO055_RETURN_FUNCTION_TYPE com_rslt = BNO055_ERROR;
 654:Src/bno055.c  **** 	/* Array holding the accel y value
 655:Src/bno055.c  **** 	data_u8[BNO055_SENSOR_DATA_LSB] - y-LSB
 656:Src/bno055.c  **** 	data_u8[BNO055_SENSOR_DATA_MSB] - y-MSB
 657:Src/bno055.c  **** 	*/
 658:Src/bno055.c  **** 	u8 data_u8[BNO055_ACCEL_DATA_SIZE] = {BNO055_INIT_VALUE,
 659:Src/bno055.c  **** 	BNO055_INIT_VALUE};
ARM GAS  /tmp/ccVWLGiI.s 			page 36


 660:Src/bno055.c  **** 	s8 stat_s8 = BNO055_ERROR;
 661:Src/bno055.c  **** 	/* Check the struct p_bno055 is empty */
 662:Src/bno055.c  **** 	if (p_bno055 == BNO055_INIT_VALUE) {
 1247              		.loc 1 662 0
 1248 0002 144C     		ldr	r4, .L134
 650:Src/bno055.c  **** 	/* Variable used to return value of
 1249              		.loc 1 650 0
 1250 0004 83B0     		sub	sp, sp, #12
 1251              	.LCFI52:
 1252              		.cfi_def_cfa_offset 24
 1253              		.loc 1 662 0
 1254 0006 2368     		ldr	r3, [r4]
 658:Src/bno055.c  **** 	BNO055_INIT_VALUE};
 1255              		.loc 1 658 0
 1256 0008 0022     		movs	r2, #0
 1257 000a 8DF80420 		strb	r2, [sp, #4]
 1258 000e 8DF80520 		strb	r2, [sp, #5]
 1259              	.LVL130:
 1260              		.loc 1 662 0
 1261 0012 EBB1     		cbz	r3, .L127
 663:Src/bno055.c  **** 		return BNO055_E_NULL_PTR;
 664:Src/bno055.c  **** 		} else {
 665:Src/bno055.c  **** 		/*condition check for page, chip id is
 666:Src/bno055.c  **** 		available in the page zero*/
 667:Src/bno055.c  **** 		if (p_bno055->page_id != BNO055_PAGE_ZERO)
 1262              		.loc 1 667 0
 1263 0014 1979     		ldrb	r1, [r3, #4]	@ zero_extendqisi2
 1264 0016 0546     		mov	r5, r0
 1265 0018 79B9     		cbnz	r1, .L133
 1266              	.LVL131:
 1267              	.L125:
 668:Src/bno055.c  **** 			/* Write the page zero*/
 669:Src/bno055.c  **** 			stat_s8 = bno055_write_page_id(BNO055_PAGE_ZERO);
 670:Src/bno055.c  **** 		if ((stat_s8 == BNO055_SUCCESS) ||
 671:Src/bno055.c  **** 		(p_bno055->page_id == BNO055_PAGE_ZERO)) {
 672:Src/bno055.c  **** 			/* Read the accel y axis two byte value*/
 673:Src/bno055.c  **** 			com_rslt = p_bno055->BNO055_BUS_READ_FUNC
 1268              		.loc 1 673 0
 1269 001a 1C69     		ldr	r4, [r3, #16]
 1270 001c 587A     		ldrb	r0, [r3, #9]	@ zero_extendqisi2
 1271 001e 01AA     		add	r2, sp, #4
 1272 0020 0223     		movs	r3, #2
 1273 0022 0A21     		movs	r1, #10
 1274 0024 A047     		blx	r4
 1275              	.LVL132:
 674:Src/bno055.c  **** 			(p_bno055->dev_addr,
 675:Src/bno055.c  **** 			BNO055_ACCEL_DATA_Y_LSB_VALUEY_REG,
 676:Src/bno055.c  **** 			data_u8, BNO055_LSB_MSB_READ_LENGTH);
 677:Src/bno055.c  **** 			data_u8[BNO055_SENSOR_DATA_LSB] =
 678:Src/bno055.c  **** 			BNO055_GET_BITSLICE(data_u8[BNO055_SENSOR_DATA_LSB],
 679:Src/bno055.c  **** 			BNO055_ACCEL_DATA_Y_LSB_VALUEY);
 680:Src/bno055.c  **** 			data_u8[BNO055_SENSOR_DATA_MSB] =
 681:Src/bno055.c  **** 			BNO055_GET_BITSLICE(data_u8[BNO055_SENSOR_DATA_MSB],
 682:Src/bno055.c  **** 			BNO055_ACCEL_DATA_Y_MSB_VALUEY);
 683:Src/bno055.c  **** 			*accel_y_s16 = (s16)((((s32)
 1276              		.loc 1 683 0
 1277 0026 9DF90520 		ldrsb	r2, [sp, #5]
ARM GAS  /tmp/ccVWLGiI.s 			page 37


 1278 002a 9DF80430 		ldrb	r3, [sp, #4]	@ zero_extendqisi2
 1279 002e 43EA0223 		orr	r3, r3, r2, lsl #8
 1280 0032 2B80     		strh	r3, [r5]	@ movhi
 1281              	.LVL133:
 1282              	.L124:
 684:Src/bno055.c  **** 			((s8)data_u8[BNO055_SENSOR_DATA_MSB])) <<
 685:Src/bno055.c  **** 			BNO055_SHIFT_EIGHT_BITS) |
 686:Src/bno055.c  **** 			(data_u8[BNO055_SENSOR_DATA_LSB]));
 687:Src/bno055.c  **** 		} else {
 688:Src/bno055.c  **** 		com_rslt = BNO055_ERROR;
 689:Src/bno055.c  **** 		}
 690:Src/bno055.c  **** 	}
 691:Src/bno055.c  **** 	return com_rslt;
 692:Src/bno055.c  **** }
 1283              		.loc 1 692 0
 1284 0034 40B2     		sxtb	r0, r0
 1285 0036 03B0     		add	sp, sp, #12
 1286              	.LCFI53:
 1287              		.cfi_remember_state
 1288              		.cfi_def_cfa_offset 12
 1289              		@ sp needed
 1290 0038 30BD     		pop	{r4, r5, pc}
 1291              	.LVL134:
 1292              	.L133:
 1293              	.LCFI54:
 1294              		.cfi_restore_state
 669:Src/bno055.c  **** 		if ((stat_s8 == BNO055_SUCCESS) ||
 1295              		.loc 1 669 0
 1296 003a 1046     		mov	r0, r2
 1297              	.LVL135:
 1298 003c FFF7FEFF 		bl	bno055_write_page_id
 1299              	.LVL136:
 1300 0040 2368     		ldr	r3, [r4]
 670:Src/bno055.c  **** 		(p_bno055->page_id == BNO055_PAGE_ZERO)) {
 1301              		.loc 1 670 0
 1302 0042 0028     		cmp	r0, #0
 1303 0044 E9D0     		beq	.L125
 1304              	.LVL137:
 670:Src/bno055.c  **** 		(p_bno055->page_id == BNO055_PAGE_ZERO)) {
 1305              		.loc 1 670 0 is_stmt 0 discriminator 1
 1306 0046 1A79     		ldrb	r2, [r3, #4]	@ zero_extendqisi2
 688:Src/bno055.c  **** 		}
 1307              		.loc 1 688 0 is_stmt 1 discriminator 1
 1308 0048 FF20     		movs	r0, #255
 670:Src/bno055.c  **** 		(p_bno055->page_id == BNO055_PAGE_ZERO)) {
 1309              		.loc 1 670 0 discriminator 1
 1310 004a 002A     		cmp	r2, #0
 1311 004c F2D1     		bne	.L124
 1312 004e E4E7     		b	.L125
 1313              	.LVL138:
 1314              	.L127:
 663:Src/bno055.c  **** 		} else {
 1315              		.loc 1 663 0
 1316 0050 8120     		movs	r0, #129
 1317              	.LVL139:
 1318 0052 EFE7     		b	.L124
 1319              	.L135:
ARM GAS  /tmp/ccVWLGiI.s 			page 38


 1320              		.align	2
 1321              	.L134:
 1322 0054 00000000 		.word	.LANCHOR0
 1323              		.cfi_endproc
 1324              	.LFE12:
 1326              		.section	.text.bno055_read_accel_z,"ax",%progbits
 1327              		.align	2
 1328              		.global	bno055_read_accel_z
 1329              		.thumb
 1330              		.thumb_func
 1332              	bno055_read_accel_z:
 1333              	.LFB13:
 693:Src/bno055.c  **** /*!
 694:Src/bno055.c  ****  *	@brief This API reads acceleration data z values
 695:Src/bno055.c  ****  *	from register 0x0C and 0x0D it is a two byte data
 696:Src/bno055.c  ****  *
 697:Src/bno055.c  ****  *
 698:Src/bno055.c  ****  *
 699:Src/bno055.c  ****  *
 700:Src/bno055.c  ****  *	@param accel_z_s16 : The z raw data
 701:Src/bno055.c  ****  *
 702:Src/bno055.c  ****  *
 703:Src/bno055.c  ****  *
 704:Src/bno055.c  ****  *	@return results of bus communication function
 705:Src/bno055.c  ****  *	@retval 0 -> BNO055_SUCCESS
 706:Src/bno055.c  ****  *	@retval 1 -> BNO055_ERROR
 707:Src/bno055.c  ****  *
 708:Src/bno055.c  ****  *
 709:Src/bno055.c  ****  */
 710:Src/bno055.c  **** BNO055_RETURN_FUNCTION_TYPE bno055_read_accel_z(s16 *accel_z_s16)
 711:Src/bno055.c  **** {
 1334              		.loc 1 711 0
 1335              		.cfi_startproc
 1336              		@ args = 0, pretend = 0, frame = 8
 1337              		@ frame_needed = 0, uses_anonymous_args = 0
 1338              	.LVL140:
 1339 0000 30B5     		push	{r4, r5, lr}
 1340              	.LCFI55:
 1341              		.cfi_def_cfa_offset 12
 1342              		.cfi_offset 4, -12
 1343              		.cfi_offset 5, -8
 1344              		.cfi_offset 14, -4
 712:Src/bno055.c  **** 	/* Variable used to return value of
 713:Src/bno055.c  **** 	communication routine*/
 714:Src/bno055.c  **** 	BNO055_RETURN_FUNCTION_TYPE com_rslt = BNO055_ERROR;
 715:Src/bno055.c  **** 	/* Array holding the accel z value
 716:Src/bno055.c  **** 	data_u8[BNO055_SENSOR_DATA_LSB] - z-LSB
 717:Src/bno055.c  **** 	data_u8[BNO055_SENSOR_DATA_MSB] - z-MSB
 718:Src/bno055.c  **** 	*/
 719:Src/bno055.c  **** 	u8 data_u8[BNO055_ACCEL_DATA_SIZE] = {BNO055_INIT_VALUE,
 720:Src/bno055.c  **** 	BNO055_INIT_VALUE};
 721:Src/bno055.c  **** 	s8 stat_s8 = BNO055_ERROR;
 722:Src/bno055.c  **** 	/* Check the struct p_bno055 is empty */
 723:Src/bno055.c  **** 	if (p_bno055 == BNO055_INIT_VALUE) {
 1345              		.loc 1 723 0
 1346 0002 144C     		ldr	r4, .L147
 711:Src/bno055.c  **** 	/* Variable used to return value of
ARM GAS  /tmp/ccVWLGiI.s 			page 39


 1347              		.loc 1 711 0
 1348 0004 83B0     		sub	sp, sp, #12
 1349              	.LCFI56:
 1350              		.cfi_def_cfa_offset 24
 1351              		.loc 1 723 0
 1352 0006 2368     		ldr	r3, [r4]
 719:Src/bno055.c  **** 	BNO055_INIT_VALUE};
 1353              		.loc 1 719 0
 1354 0008 0022     		movs	r2, #0
 1355 000a 8DF80420 		strb	r2, [sp, #4]
 1356 000e 8DF80520 		strb	r2, [sp, #5]
 1357              	.LVL141:
 1358              		.loc 1 723 0
 1359 0012 EBB1     		cbz	r3, .L140
 724:Src/bno055.c  **** 		return BNO055_E_NULL_PTR;
 725:Src/bno055.c  **** 		} else {
 726:Src/bno055.c  **** 		/*condition check for page, chip id is
 727:Src/bno055.c  **** 		available in the page zero*/
 728:Src/bno055.c  **** 		if (p_bno055->page_id != BNO055_PAGE_ZERO)
 1360              		.loc 1 728 0
 1361 0014 1979     		ldrb	r1, [r3, #4]	@ zero_extendqisi2
 1362 0016 0546     		mov	r5, r0
 1363 0018 79B9     		cbnz	r1, .L146
 1364              	.LVL142:
 1365              	.L138:
 729:Src/bno055.c  **** 			/* Write the page zero*/
 730:Src/bno055.c  **** 			stat_s8 = bno055_write_page_id(BNO055_PAGE_ZERO);
 731:Src/bno055.c  **** 		if ((stat_s8 == BNO055_SUCCESS) ||
 732:Src/bno055.c  **** 		(p_bno055->page_id == BNO055_PAGE_ZERO)) {
 733:Src/bno055.c  **** 			/* Read the accel z axis two byte value*/
 734:Src/bno055.c  **** 			com_rslt = p_bno055->BNO055_BUS_READ_FUNC
 1366              		.loc 1 734 0
 1367 001a 1C69     		ldr	r4, [r3, #16]
 1368 001c 587A     		ldrb	r0, [r3, #9]	@ zero_extendqisi2
 1369 001e 01AA     		add	r2, sp, #4
 1370 0020 0223     		movs	r3, #2
 1371 0022 0C21     		movs	r1, #12
 1372 0024 A047     		blx	r4
 1373              	.LVL143:
 735:Src/bno055.c  **** 			(p_bno055->dev_addr,
 736:Src/bno055.c  **** 			BNO055_ACCEL_DATA_Z_LSB_VALUEZ_REG,
 737:Src/bno055.c  **** 			data_u8, BNO055_LSB_MSB_READ_LENGTH);
 738:Src/bno055.c  **** 			data_u8[BNO055_SENSOR_DATA_LSB] =
 739:Src/bno055.c  **** 			BNO055_GET_BITSLICE(data_u8[BNO055_SENSOR_DATA_LSB],
 740:Src/bno055.c  **** 			BNO055_ACCEL_DATA_Z_LSB_VALUEZ);
 741:Src/bno055.c  **** 			data_u8[BNO055_SENSOR_DATA_MSB] =
 742:Src/bno055.c  **** 			BNO055_GET_BITSLICE(data_u8[BNO055_SENSOR_DATA_MSB],
 743:Src/bno055.c  **** 			BNO055_ACCEL_DATA_Z_MSB_VALUEZ);
 744:Src/bno055.c  **** 			*accel_z_s16 = (s16)((((s32)
 1374              		.loc 1 744 0
 1375 0026 9DF90520 		ldrsb	r2, [sp, #5]
 1376 002a 9DF80430 		ldrb	r3, [sp, #4]	@ zero_extendqisi2
 1377 002e 43EA0223 		orr	r3, r3, r2, lsl #8
 1378 0032 2B80     		strh	r3, [r5]	@ movhi
 1379              	.LVL144:
 1380              	.L137:
 745:Src/bno055.c  **** 			((s8)data_u8[BNO055_SENSOR_DATA_MSB])) <<
ARM GAS  /tmp/ccVWLGiI.s 			page 40


 746:Src/bno055.c  **** 			BNO055_SHIFT_EIGHT_BITS) |
 747:Src/bno055.c  **** 			(data_u8[BNO055_SENSOR_DATA_LSB]));
 748:Src/bno055.c  **** 		} else {
 749:Src/bno055.c  **** 		com_rslt = BNO055_ERROR;
 750:Src/bno055.c  **** 		}
 751:Src/bno055.c  **** 	}
 752:Src/bno055.c  **** 	return com_rslt;
 753:Src/bno055.c  **** }
 1381              		.loc 1 753 0
 1382 0034 40B2     		sxtb	r0, r0
 1383 0036 03B0     		add	sp, sp, #12
 1384              	.LCFI57:
 1385              		.cfi_remember_state
 1386              		.cfi_def_cfa_offset 12
 1387              		@ sp needed
 1388 0038 30BD     		pop	{r4, r5, pc}
 1389              	.LVL145:
 1390              	.L146:
 1391              	.LCFI58:
 1392              		.cfi_restore_state
 730:Src/bno055.c  **** 		if ((stat_s8 == BNO055_SUCCESS) ||
 1393              		.loc 1 730 0
 1394 003a 1046     		mov	r0, r2
 1395              	.LVL146:
 1396 003c FFF7FEFF 		bl	bno055_write_page_id
 1397              	.LVL147:
 1398 0040 2368     		ldr	r3, [r4]
 731:Src/bno055.c  **** 		(p_bno055->page_id == BNO055_PAGE_ZERO)) {
 1399              		.loc 1 731 0
 1400 0042 0028     		cmp	r0, #0
 1401 0044 E9D0     		beq	.L138
 1402              	.LVL148:
 731:Src/bno055.c  **** 		(p_bno055->page_id == BNO055_PAGE_ZERO)) {
 1403              		.loc 1 731 0 is_stmt 0 discriminator 1
 1404 0046 1A79     		ldrb	r2, [r3, #4]	@ zero_extendqisi2
 749:Src/bno055.c  **** 		}
 1405              		.loc 1 749 0 is_stmt 1 discriminator 1
 1406 0048 FF20     		movs	r0, #255
 731:Src/bno055.c  **** 		(p_bno055->page_id == BNO055_PAGE_ZERO)) {
 1407              		.loc 1 731 0 discriminator 1
 1408 004a 002A     		cmp	r2, #0
 1409 004c F2D1     		bne	.L137
 1410 004e E4E7     		b	.L138
 1411              	.LVL149:
 1412              	.L140:
 724:Src/bno055.c  **** 		} else {
 1413              		.loc 1 724 0
 1414 0050 8120     		movs	r0, #129
 1415              	.LVL150:
 1416 0052 EFE7     		b	.L137
 1417              	.L148:
 1418              		.align	2
 1419              	.L147:
 1420 0054 00000000 		.word	.LANCHOR0
 1421              		.cfi_endproc
 1422              	.LFE13:
 1424              		.section	.text.bno055_read_accel_xyz,"ax",%progbits
ARM GAS  /tmp/ccVWLGiI.s 			page 41


 1425              		.align	2
 1426              		.global	bno055_read_accel_xyz
 1427              		.thumb
 1428              		.thumb_func
 1430              	bno055_read_accel_xyz:
 1431              	.LFB14:
 754:Src/bno055.c  **** /*!
 755:Src/bno055.c  ****  *	@brief This API reads acceleration data xyz values
 756:Src/bno055.c  ****  *	from register 0x08 to 0x0D it is a six byte data
 757:Src/bno055.c  ****  *
 758:Src/bno055.c  ****  *
 759:Src/bno055.c  ****  *	@param accel : The value of accel xyz data
 760:Src/bno055.c  ****  *
 761:Src/bno055.c  ****  *	Parameter |    result
 762:Src/bno055.c  ****  *  --------- | -----------------
 763:Src/bno055.c  ****  *	 x        | The accel x data
 764:Src/bno055.c  ****  *	 y        | The accel y data
 765:Src/bno055.c  ****  *	 z        | The accel z data
 766:Src/bno055.c  ****  *
 767:Src/bno055.c  ****  *
 768:Src/bno055.c  ****  *
 769:Src/bno055.c  ****  *	@return results of bus communication function
 770:Src/bno055.c  ****  *	@retval 0 -> BNO055_SUCCESS
 771:Src/bno055.c  ****  *	@retval 1 -> BNO055_ERROR
 772:Src/bno055.c  ****  *
 773:Src/bno055.c  ****  */
 774:Src/bno055.c  **** BNO055_RETURN_FUNCTION_TYPE bno055_read_accel_xyz(
 775:Src/bno055.c  **** struct bno055_accel_t *accel)
 776:Src/bno055.c  **** {
 1432              		.loc 1 776 0
 1433              		.cfi_startproc
 1434              		@ args = 0, pretend = 0, frame = 8
 1435              		@ frame_needed = 0, uses_anonymous_args = 0
 1436              	.LVL151:
 1437 0000 F0B5     		push	{r4, r5, r6, r7, lr}
 1438              	.LCFI59:
 1439              		.cfi_def_cfa_offset 20
 1440              		.cfi_offset 4, -20
 1441              		.cfi_offset 5, -16
 1442              		.cfi_offset 6, -12
 1443              		.cfi_offset 7, -8
 1444              		.cfi_offset 14, -4
 777:Src/bno055.c  **** 	/* Variable used to return value of
 778:Src/bno055.c  **** 	communication routine*/
 779:Src/bno055.c  **** 	BNO055_RETURN_FUNCTION_TYPE com_rslt = BNO055_ERROR;
 780:Src/bno055.c  **** 	/* Array holding the accel xyz value
 781:Src/bno055.c  **** 	data_u8[BNO055_SENSOR_DATA_XYZ_X_LSB] - x->LSB
 782:Src/bno055.c  **** 	data_u8[BNO055_SENSOR_DATA_XYZ_X_MSB] - x->MSB
 783:Src/bno055.c  **** 	data_u8[BNO055_SENSOR_DATA_XYZ_Y_LSB] - y->MSB
 784:Src/bno055.c  **** 	data_u8[BNO055_SENSOR_DATA_XYZ_Y_MSB] - y->MSB
 785:Src/bno055.c  **** 	data_u8[BNO055_SENSOR_DATA_XYZ_Z_LSB] - z->MSB
 786:Src/bno055.c  **** 	data_u8[BNO055_SENSOR_DATA_XYZ_Z_MSB] - z->MSB
 787:Src/bno055.c  **** 	*/
 788:Src/bno055.c  **** 	u8 data_u8[BNO055_ACCEL_XYZ_DATA_SIZE] = {
 789:Src/bno055.c  **** 	BNO055_INIT_VALUE, BNO055_INIT_VALUE,
 790:Src/bno055.c  **** 	BNO055_INIT_VALUE, BNO055_INIT_VALUE,
 791:Src/bno055.c  **** 	BNO055_INIT_VALUE, BNO055_INIT_VALUE};
ARM GAS  /tmp/ccVWLGiI.s 			page 42


 792:Src/bno055.c  **** 	s8 stat_s8 = BNO055_ERROR;
 793:Src/bno055.c  **** 	/* Check the struct p_bno055 is empty */
 794:Src/bno055.c  **** 	if (p_bno055 == BNO055_INIT_VALUE) {
 1445              		.loc 1 794 0
 1446 0002 1F4D     		ldr	r5, .L160
 776:Src/bno055.c  **** 	/* Variable used to return value of
 1447              		.loc 1 776 0
 1448 0004 83B0     		sub	sp, sp, #12
 1449              	.LCFI60:
 1450              		.cfi_def_cfa_offset 32
 1451              		.loc 1 794 0
 1452 0006 2A68     		ldr	r2, [r5]
 788:Src/bno055.c  **** 	BNO055_INIT_VALUE, BNO055_INIT_VALUE,
 1453              		.loc 1 788 0
 1454 0008 0023     		movs	r3, #0
 1455 000a 8DF80030 		strb	r3, [sp]
 1456 000e 8DF80130 		strb	r3, [sp, #1]
 1457 0012 8DF80230 		strb	r3, [sp, #2]
 1458 0016 8DF80330 		strb	r3, [sp, #3]
 1459 001a 8DF80430 		strb	r3, [sp, #4]
 1460 001e 8DF80530 		strb	r3, [sp, #5]
 1461              	.LVL152:
 1462              		.loc 1 794 0
 1463 0022 5AB3     		cbz	r2, .L153
 795:Src/bno055.c  **** 		return BNO055_E_NULL_PTR;
 796:Src/bno055.c  **** 		} else {
 797:Src/bno055.c  **** 		/*condition check for page, chip id is
 798:Src/bno055.c  **** 		available in the page zero*/
 799:Src/bno055.c  **** 		if (p_bno055->page_id != BNO055_PAGE_ZERO)
 1464              		.loc 1 799 0
 1465 0024 1179     		ldrb	r1, [r2, #4]	@ zero_extendqisi2
 1466 0026 0446     		mov	r4, r0
 1467 0028 E9B9     		cbnz	r1, .L159
 1468              	.LVL153:
 1469              	.L151:
 800:Src/bno055.c  **** 			/* Write the page zero*/
 801:Src/bno055.c  **** 			stat_s8 = bno055_write_page_id(BNO055_PAGE_ZERO);
 802:Src/bno055.c  **** 		if ((stat_s8 == BNO055_SUCCESS) ||
 803:Src/bno055.c  **** 		(p_bno055->page_id == BNO055_PAGE_ZERO)) {
 804:Src/bno055.c  **** 			com_rslt = p_bno055->BNO055_BUS_READ_FUNC
 1470              		.loc 1 804 0
 1471 002a 1569     		ldr	r5, [r2, #16]
 1472 002c 507A     		ldrb	r0, [r2, #9]	@ zero_extendqisi2
 1473 002e 0821     		movs	r1, #8
 1474 0030 6A46     		mov	r2, sp
 1475 0032 0623     		movs	r3, #6
 1476 0034 A847     		blx	r5
 1477              	.LVL154:
 805:Src/bno055.c  **** 			(p_bno055->dev_addr,
 806:Src/bno055.c  **** 			BNO055_ACCEL_DATA_X_LSB_VALUEX_REG,
 807:Src/bno055.c  **** 			data_u8, BNO055_ACCEL_XYZ_DATA_SIZE);
 808:Src/bno055.c  **** 			/* Data X*/
 809:Src/bno055.c  **** 			data_u8[BNO055_SENSOR_DATA_XYZ_X_LSB] =
 810:Src/bno055.c  **** 			BNO055_GET_BITSLICE(
 811:Src/bno055.c  **** 			data_u8[BNO055_SENSOR_DATA_XYZ_X_LSB],
 812:Src/bno055.c  **** 			BNO055_ACCEL_DATA_X_LSB_VALUEX);
 813:Src/bno055.c  **** 			data_u8[BNO055_SENSOR_DATA_XYZ_X_MSB] =
ARM GAS  /tmp/ccVWLGiI.s 			page 43


 814:Src/bno055.c  **** 			BNO055_GET_BITSLICE(
 815:Src/bno055.c  **** 			data_u8[BNO055_SENSOR_DATA_XYZ_X_MSB],
 816:Src/bno055.c  **** 			BNO055_ACCEL_DATA_X_MSB_VALUEX);
 817:Src/bno055.c  **** 			accel->x = (s16)((((s32)
 1478              		.loc 1 817 0
 1479 0036 9DF90170 		ldrsb	r7, [sp, #1]
 1480 003a 9DF80010 		ldrb	r1, [sp]	@ zero_extendqisi2
 818:Src/bno055.c  **** 			((s8)data_u8[BNO055_SENSOR_DATA_XYZ_X_MSB])) <<
 819:Src/bno055.c  **** 			BNO055_SHIFT_EIGHT_BITS)
 820:Src/bno055.c  **** 			| (data_u8[BNO055_SENSOR_DATA_XYZ_X_LSB]));
 821:Src/bno055.c  **** 			/* Data Y*/
 822:Src/bno055.c  **** 			data_u8[BNO055_SENSOR_DATA_XYZ_Y_LSB] =
 823:Src/bno055.c  **** 			BNO055_GET_BITSLICE(
 824:Src/bno055.c  **** 			data_u8[BNO055_SENSOR_DATA_XYZ_Y_LSB],
 825:Src/bno055.c  **** 			BNO055_ACCEL_DATA_Y_LSB_VALUEY);
 826:Src/bno055.c  **** 			data_u8[BNO055_SENSOR_DATA_XYZ_Y_MSB] =
 827:Src/bno055.c  **** 			BNO055_GET_BITSLICE(
 828:Src/bno055.c  **** 			data_u8[BNO055_SENSOR_DATA_XYZ_Y_MSB],
 829:Src/bno055.c  **** 			BNO055_ACCEL_DATA_Y_MSB_VALUEY);
 830:Src/bno055.c  **** 			accel->y = (s16)((((s32)
 1481              		.loc 1 830 0
 1482 003e 9DF90360 		ldrsb	r6, [sp, #3]
 1483 0042 9DF80220 		ldrb	r2, [sp, #2]	@ zero_extendqisi2
 831:Src/bno055.c  **** 			((s8)data_u8[BNO055_SENSOR_DATA_XYZ_Y_MSB])) <<
 832:Src/bno055.c  **** 			BNO055_SHIFT_EIGHT_BITS)
 833:Src/bno055.c  **** 			| (data_u8[BNO055_SENSOR_DATA_XYZ_Y_LSB]));
 834:Src/bno055.c  **** 			/* Data Z*/
 835:Src/bno055.c  **** 			data_u8[BNO055_SENSOR_DATA_XYZ_Z_LSB] =
 836:Src/bno055.c  **** 			BNO055_GET_BITSLICE(
 837:Src/bno055.c  **** 			data_u8[BNO055_SENSOR_DATA_XYZ_Z_LSB],
 838:Src/bno055.c  **** 			BNO055_ACCEL_DATA_Z_LSB_VALUEZ);
 839:Src/bno055.c  **** 			data_u8[BNO055_SENSOR_DATA_XYZ_Z_MSB] =
 840:Src/bno055.c  **** 			BNO055_GET_BITSLICE(
 841:Src/bno055.c  **** 			data_u8[BNO055_SENSOR_DATA_XYZ_Z_MSB],
 842:Src/bno055.c  **** 			BNO055_ACCEL_DATA_Z_MSB_VALUEZ);
 843:Src/bno055.c  **** 			accel->z = (s16)((((s32)
 1484              		.loc 1 843 0
 1485 0046 9DF90550 		ldrsb	r5, [sp, #5]
 1486 004a 9DF80430 		ldrb	r3, [sp, #4]	@ zero_extendqisi2
 817:Src/bno055.c  **** 			((s8)data_u8[BNO055_SENSOR_DATA_XYZ_X_MSB])) <<
 1487              		.loc 1 817 0
 1488 004e 41EA0721 		orr	r1, r1, r7, lsl #8
 830:Src/bno055.c  **** 			((s8)data_u8[BNO055_SENSOR_DATA_XYZ_Y_MSB])) <<
 1489              		.loc 1 830 0
 1490 0052 42EA0622 		orr	r2, r2, r6, lsl #8
 1491              		.loc 1 843 0
 1492 0056 43EA0523 		orr	r3, r3, r5, lsl #8
 817:Src/bno055.c  **** 			((s8)data_u8[BNO055_SENSOR_DATA_XYZ_X_MSB])) <<
 1493              		.loc 1 817 0
 1494 005a 2180     		strh	r1, [r4]	@ movhi
 830:Src/bno055.c  **** 			((s8)data_u8[BNO055_SENSOR_DATA_XYZ_Y_MSB])) <<
 1495              		.loc 1 830 0
 1496 005c 6280     		strh	r2, [r4, #2]	@ movhi
 1497              		.loc 1 843 0
 1498 005e A380     		strh	r3, [r4, #4]	@ movhi
 1499              	.LVL155:
 1500              	.L150:
ARM GAS  /tmp/ccVWLGiI.s 			page 44


 844:Src/bno055.c  **** 			((s8)data_u8[BNO055_SENSOR_DATA_XYZ_Z_MSB])) <<
 845:Src/bno055.c  **** 			BNO055_SHIFT_EIGHT_BITS)
 846:Src/bno055.c  **** 			| (data_u8[BNO055_SENSOR_DATA_XYZ_Z_LSB]));
 847:Src/bno055.c  **** 		} else {
 848:Src/bno055.c  **** 		com_rslt = BNO055_ERROR;
 849:Src/bno055.c  **** 		}
 850:Src/bno055.c  **** 	}
 851:Src/bno055.c  **** 	return com_rslt;
 852:Src/bno055.c  **** }
 1501              		.loc 1 852 0
 1502 0060 40B2     		sxtb	r0, r0
 1503 0062 03B0     		add	sp, sp, #12
 1504              	.LCFI61:
 1505              		.cfi_remember_state
 1506              		.cfi_def_cfa_offset 20
 1507              		@ sp needed
 1508 0064 F0BD     		pop	{r4, r5, r6, r7, pc}
 1509              	.LVL156:
 1510              	.L159:
 1511              	.LCFI62:
 1512              		.cfi_restore_state
 801:Src/bno055.c  **** 		if ((stat_s8 == BNO055_SUCCESS) ||
 1513              		.loc 1 801 0
 1514 0066 1846     		mov	r0, r3
 1515              	.LVL157:
 1516 0068 FFF7FEFF 		bl	bno055_write_page_id
 1517              	.LVL158:
 1518 006c 2A68     		ldr	r2, [r5]
 802:Src/bno055.c  **** 		(p_bno055->page_id == BNO055_PAGE_ZERO)) {
 1519              		.loc 1 802 0
 1520 006e 0028     		cmp	r0, #0
 1521 0070 DBD0     		beq	.L151
 1522              	.LVL159:
 802:Src/bno055.c  **** 		(p_bno055->page_id == BNO055_PAGE_ZERO)) {
 1523              		.loc 1 802 0 is_stmt 0 discriminator 1
 1524 0072 1379     		ldrb	r3, [r2, #4]	@ zero_extendqisi2
 848:Src/bno055.c  **** 		}
 1525              		.loc 1 848 0 is_stmt 1 discriminator 1
 1526 0074 FF20     		movs	r0, #255
 802:Src/bno055.c  **** 		(p_bno055->page_id == BNO055_PAGE_ZERO)) {
 1527              		.loc 1 802 0 discriminator 1
 1528 0076 002B     		cmp	r3, #0
 1529 0078 F2D1     		bne	.L150
 1530 007a D6E7     		b	.L151
 1531              	.LVL160:
 1532              	.L153:
 795:Src/bno055.c  **** 		} else {
 1533              		.loc 1 795 0
 1534 007c 8120     		movs	r0, #129
 1535              	.LVL161:
 1536 007e EFE7     		b	.L150
 1537              	.L161:
 1538              		.align	2
 1539              	.L160:
 1540 0080 00000000 		.word	.LANCHOR0
 1541              		.cfi_endproc
 1542              	.LFE14:
ARM GAS  /tmp/ccVWLGiI.s 			page 45


 1544              		.section	.text.bno055_read_mag_x,"ax",%progbits
 1545              		.align	2
 1546              		.global	bno055_read_mag_x
 1547              		.thumb
 1548              		.thumb_func
 1550              	bno055_read_mag_x:
 1551              	.LFB15:
 853:Src/bno055.c  **** /*!
 854:Src/bno055.c  ****  *	@brief This API reads mag data x values
 855:Src/bno055.c  ****  *	from register 0x0E and 0x0F it is a two byte data
 856:Src/bno055.c  ****  *
 857:Src/bno055.c  ****  *
 858:Src/bno055.c  ****  *
 859:Src/bno055.c  ****  *
 860:Src/bno055.c  ****  *	@param mag_x_s16 : The x raw data
 861:Src/bno055.c  ****  *
 862:Src/bno055.c  ****  *
 863:Src/bno055.c  ****  *
 864:Src/bno055.c  ****  *	@return results of bus communication function
 865:Src/bno055.c  ****  *	@retval 0 -> BNO055_SUCCESS
 866:Src/bno055.c  ****  *	@retval 1 -> BNO055_ERROR
 867:Src/bno055.c  ****  *
 868:Src/bno055.c  ****  *
 869:Src/bno055.c  ****  *
 870:Src/bno055.c  ****  */
 871:Src/bno055.c  **** BNO055_RETURN_FUNCTION_TYPE bno055_read_mag_x(s16 *mag_x_s16)
 872:Src/bno055.c  **** {
 1552              		.loc 1 872 0
 1553              		.cfi_startproc
 1554              		@ args = 0, pretend = 0, frame = 8
 1555              		@ frame_needed = 0, uses_anonymous_args = 0
 1556              	.LVL162:
 1557 0000 30B5     		push	{r4, r5, lr}
 1558              	.LCFI63:
 1559              		.cfi_def_cfa_offset 12
 1560              		.cfi_offset 4, -12
 1561              		.cfi_offset 5, -8
 1562              		.cfi_offset 14, -4
 873:Src/bno055.c  **** 	/* Variable used to return value of
 874:Src/bno055.c  **** 	communication routine*/
 875:Src/bno055.c  **** 	BNO055_RETURN_FUNCTION_TYPE com_rslt = BNO055_ERROR;
 876:Src/bno055.c  **** 	/* Array holding the mag x value
 877:Src/bno055.c  **** 	data_u8[BNO055_SENSOR_DATA_LSB] - x->LSB
 878:Src/bno055.c  **** 	data_u8[BNO055_SENSOR_DATA_MSB] - x->MSB
 879:Src/bno055.c  **** 	*/
 880:Src/bno055.c  **** 	u8 data_u8[BNO055_MAG_DATA_SIZE] = {BNO055_INIT_VALUE,
 881:Src/bno055.c  **** 	BNO055_INIT_VALUE};
 882:Src/bno055.c  **** 	s8 stat_s8 = BNO055_ERROR;
 883:Src/bno055.c  **** 	/* Check the struct p_bno055 is empty */
 884:Src/bno055.c  **** 	if (p_bno055 == BNO055_INIT_VALUE) {
 1563              		.loc 1 884 0
 1564 0002 144C     		ldr	r4, .L173
 872:Src/bno055.c  **** 	/* Variable used to return value of
 1565              		.loc 1 872 0
 1566 0004 83B0     		sub	sp, sp, #12
 1567              	.LCFI64:
 1568              		.cfi_def_cfa_offset 24
ARM GAS  /tmp/ccVWLGiI.s 			page 46


 1569              		.loc 1 884 0
 1570 0006 2368     		ldr	r3, [r4]
 880:Src/bno055.c  **** 	BNO055_INIT_VALUE};
 1571              		.loc 1 880 0
 1572 0008 0022     		movs	r2, #0
 1573 000a 8DF80420 		strb	r2, [sp, #4]
 1574 000e 8DF80520 		strb	r2, [sp, #5]
 1575              	.LVL163:
 1576              		.loc 1 884 0
 1577 0012 EBB1     		cbz	r3, .L166
 885:Src/bno055.c  **** 		return BNO055_E_NULL_PTR;
 886:Src/bno055.c  **** 		} else {
 887:Src/bno055.c  **** 		/*condition check for page, chip id is
 888:Src/bno055.c  **** 		available in the page zero*/
 889:Src/bno055.c  **** 		if (p_bno055->page_id != BNO055_PAGE_ZERO)
 1578              		.loc 1 889 0
 1579 0014 1979     		ldrb	r1, [r3, #4]	@ zero_extendqisi2
 1580 0016 0546     		mov	r5, r0
 1581 0018 79B9     		cbnz	r1, .L172
 1582              	.LVL164:
 1583              	.L164:
 890:Src/bno055.c  **** 			/* Write the page zero*/
 891:Src/bno055.c  **** 			stat_s8 = bno055_write_page_id(BNO055_PAGE_ZERO);
 892:Src/bno055.c  **** 		if ((stat_s8 == BNO055_SUCCESS) ||
 893:Src/bno055.c  **** 		(p_bno055->page_id == BNO055_PAGE_ZERO)) {
 894:Src/bno055.c  **** 			/*Read the mag x two bytes of data */
 895:Src/bno055.c  **** 			com_rslt = p_bno055->BNO055_BUS_READ_FUNC
 1584              		.loc 1 895 0
 1585 001a 1C69     		ldr	r4, [r3, #16]
 1586 001c 587A     		ldrb	r0, [r3, #9]	@ zero_extendqisi2
 1587 001e 01AA     		add	r2, sp, #4
 1588 0020 0223     		movs	r3, #2
 1589 0022 0E21     		movs	r1, #14
 1590 0024 A047     		blx	r4
 1591              	.LVL165:
 896:Src/bno055.c  **** 			(p_bno055->dev_addr,
 897:Src/bno055.c  **** 			BNO055_MAG_DATA_X_LSB_VALUEX_REG,
 898:Src/bno055.c  **** 			data_u8, BNO055_LSB_MSB_READ_LENGTH);
 899:Src/bno055.c  **** 			data_u8[BNO055_SENSOR_DATA_LSB] =
 900:Src/bno055.c  **** 			BNO055_GET_BITSLICE(data_u8[BNO055_SENSOR_DATA_LSB],
 901:Src/bno055.c  **** 			BNO055_MAG_DATA_X_LSB_VALUEX);
 902:Src/bno055.c  **** 			data_u8[BNO055_SENSOR_DATA_MSB] =
 903:Src/bno055.c  **** 			BNO055_GET_BITSLICE(data_u8[BNO055_SENSOR_DATA_MSB],
 904:Src/bno055.c  **** 			BNO055_MAG_DATA_X_MSB_VALUEX);
 905:Src/bno055.c  **** 			*mag_x_s16 = (s16)((((s32)
 1592              		.loc 1 905 0
 1593 0026 9DF90520 		ldrsb	r2, [sp, #5]
 1594 002a 9DF80430 		ldrb	r3, [sp, #4]	@ zero_extendqisi2
 1595 002e 43EA0223 		orr	r3, r3, r2, lsl #8
 1596 0032 2B80     		strh	r3, [r5]	@ movhi
 1597              	.LVL166:
 1598              	.L163:
 906:Src/bno055.c  **** 			((s8)data_u8[BNO055_SENSOR_DATA_MSB])) <<
 907:Src/bno055.c  **** 			BNO055_SHIFT_EIGHT_BITS) | (
 908:Src/bno055.c  **** 			data_u8[BNO055_SENSOR_DATA_LSB]));
 909:Src/bno055.c  **** 		} else {
 910:Src/bno055.c  **** 		com_rslt = BNO055_ERROR;
ARM GAS  /tmp/ccVWLGiI.s 			page 47


 911:Src/bno055.c  **** 		}
 912:Src/bno055.c  **** 	}
 913:Src/bno055.c  **** 	return com_rslt;
 914:Src/bno055.c  **** }
 1599              		.loc 1 914 0
 1600 0034 40B2     		sxtb	r0, r0
 1601 0036 03B0     		add	sp, sp, #12
 1602              	.LCFI65:
 1603              		.cfi_remember_state
 1604              		.cfi_def_cfa_offset 12
 1605              		@ sp needed
 1606 0038 30BD     		pop	{r4, r5, pc}
 1607              	.LVL167:
 1608              	.L172:
 1609              	.LCFI66:
 1610              		.cfi_restore_state
 891:Src/bno055.c  **** 		if ((stat_s8 == BNO055_SUCCESS) ||
 1611              		.loc 1 891 0
 1612 003a 1046     		mov	r0, r2
 1613              	.LVL168:
 1614 003c FFF7FEFF 		bl	bno055_write_page_id
 1615              	.LVL169:
 1616 0040 2368     		ldr	r3, [r4]
 892:Src/bno055.c  **** 		(p_bno055->page_id == BNO055_PAGE_ZERO)) {
 1617              		.loc 1 892 0
 1618 0042 0028     		cmp	r0, #0
 1619 0044 E9D0     		beq	.L164
 1620              	.LVL170:
 892:Src/bno055.c  **** 		(p_bno055->page_id == BNO055_PAGE_ZERO)) {
 1621              		.loc 1 892 0 is_stmt 0 discriminator 1
 1622 0046 1A79     		ldrb	r2, [r3, #4]	@ zero_extendqisi2
 910:Src/bno055.c  **** 		}
 1623              		.loc 1 910 0 is_stmt 1 discriminator 1
 1624 0048 FF20     		movs	r0, #255
 892:Src/bno055.c  **** 		(p_bno055->page_id == BNO055_PAGE_ZERO)) {
 1625              		.loc 1 892 0 discriminator 1
 1626 004a 002A     		cmp	r2, #0
 1627 004c F2D1     		bne	.L163
 1628 004e E4E7     		b	.L164
 1629              	.LVL171:
 1630              	.L166:
 885:Src/bno055.c  **** 		} else {
 1631              		.loc 1 885 0
 1632 0050 8120     		movs	r0, #129
 1633              	.LVL172:
 1634 0052 EFE7     		b	.L163
 1635              	.L174:
 1636              		.align	2
 1637              	.L173:
 1638 0054 00000000 		.word	.LANCHOR0
 1639              		.cfi_endproc
 1640              	.LFE15:
 1642              		.section	.text.bno055_read_mag_y,"ax",%progbits
 1643              		.align	2
 1644              		.global	bno055_read_mag_y
 1645              		.thumb
 1646              		.thumb_func
ARM GAS  /tmp/ccVWLGiI.s 			page 48


 1648              	bno055_read_mag_y:
 1649              	.LFB16:
 915:Src/bno055.c  **** /*!
 916:Src/bno055.c  ****  *	@brief This API reads mag data y values
 917:Src/bno055.c  ****  *	from register 0x10 and 0x11 it is a two byte data
 918:Src/bno055.c  ****  *
 919:Src/bno055.c  ****  *
 920:Src/bno055.c  ****  *
 921:Src/bno055.c  ****  *
 922:Src/bno055.c  ****  *	@param mag_y_s16 : The y raw data
 923:Src/bno055.c  ****  *
 924:Src/bno055.c  ****  *
 925:Src/bno055.c  ****  *
 926:Src/bno055.c  ****  *	@return results of bus communication function
 927:Src/bno055.c  ****  *	@retval 0 -> BNO055_SUCCESS
 928:Src/bno055.c  ****  *	@retval 1 -> BNO055_ERROR
 929:Src/bno055.c  ****  *
 930:Src/bno055.c  ****  *
 931:Src/bno055.c  ****  */
 932:Src/bno055.c  **** BNO055_RETURN_FUNCTION_TYPE bno055_read_mag_y(s16 *mag_y_s16)
 933:Src/bno055.c  **** {
 1650              		.loc 1 933 0
 1651              		.cfi_startproc
 1652              		@ args = 0, pretend = 0, frame = 8
 1653              		@ frame_needed = 0, uses_anonymous_args = 0
 1654              	.LVL173:
 1655 0000 30B5     		push	{r4, r5, lr}
 1656              	.LCFI67:
 1657              		.cfi_def_cfa_offset 12
 1658              		.cfi_offset 4, -12
 1659              		.cfi_offset 5, -8
 1660              		.cfi_offset 14, -4
 934:Src/bno055.c  **** 	/* Variable used to return value of
 935:Src/bno055.c  **** 	communication routine*/
 936:Src/bno055.c  **** 	BNO055_RETURN_FUNCTION_TYPE com_rslt = BNO055_ERROR;
 937:Src/bno055.c  **** 	/* Array holding the mag y value
 938:Src/bno055.c  **** 	data_u8[BNO055_SENSOR_DATA_LSB] - y->LSB
 939:Src/bno055.c  **** 	data_u8[BNO055_SENSOR_DATA_MSB] - y->MSB
 940:Src/bno055.c  **** 	*/
 941:Src/bno055.c  **** 	u8 data_u8[BNO055_MAG_DATA_SIZE] = {
 942:Src/bno055.c  **** 	BNO055_INIT_VALUE, BNO055_INIT_VALUE};
 943:Src/bno055.c  **** 	s8 stat_s8 = BNO055_ERROR;
 944:Src/bno055.c  **** 	/* Check the struct p_bno055 is empty */
 945:Src/bno055.c  **** 	if (p_bno055 == BNO055_INIT_VALUE) {
 1661              		.loc 1 945 0
 1662 0002 144C     		ldr	r4, .L186
 933:Src/bno055.c  **** 	/* Variable used to return value of
 1663              		.loc 1 933 0
 1664 0004 83B0     		sub	sp, sp, #12
 1665              	.LCFI68:
 1666              		.cfi_def_cfa_offset 24
 1667              		.loc 1 945 0
 1668 0006 2368     		ldr	r3, [r4]
 941:Src/bno055.c  **** 	BNO055_INIT_VALUE, BNO055_INIT_VALUE};
 1669              		.loc 1 941 0
 1670 0008 0022     		movs	r2, #0
 1671 000a 8DF80420 		strb	r2, [sp, #4]
ARM GAS  /tmp/ccVWLGiI.s 			page 49


 1672 000e 8DF80520 		strb	r2, [sp, #5]
 1673              	.LVL174:
 1674              		.loc 1 945 0
 1675 0012 EBB1     		cbz	r3, .L179
 946:Src/bno055.c  **** 		return BNO055_E_NULL_PTR;
 947:Src/bno055.c  **** 		} else {
 948:Src/bno055.c  **** 		/*condition check for page, chip id is
 949:Src/bno055.c  **** 		available in the page zero*/
 950:Src/bno055.c  **** 		if (p_bno055->page_id != BNO055_PAGE_ZERO)
 1676              		.loc 1 950 0
 1677 0014 1979     		ldrb	r1, [r3, #4]	@ zero_extendqisi2
 1678 0016 0546     		mov	r5, r0
 1679 0018 79B9     		cbnz	r1, .L185
 1680              	.LVL175:
 1681              	.L177:
 951:Src/bno055.c  **** 			/* Write the page zero*/
 952:Src/bno055.c  **** 			stat_s8 = bno055_write_page_id(BNO055_PAGE_ZERO);
 953:Src/bno055.c  **** 		if ((stat_s8 == BNO055_SUCCESS) ||
 954:Src/bno055.c  **** 		(p_bno055->page_id == BNO055_PAGE_ZERO)) {
 955:Src/bno055.c  **** 			/*Read the mag y two bytes of data */
 956:Src/bno055.c  **** 			com_rslt = p_bno055->BNO055_BUS_READ_FUNC
 1682              		.loc 1 956 0
 1683 001a 1C69     		ldr	r4, [r3, #16]
 1684 001c 587A     		ldrb	r0, [r3, #9]	@ zero_extendqisi2
 1685 001e 01AA     		add	r2, sp, #4
 1686 0020 0223     		movs	r3, #2
 1687 0022 1021     		movs	r1, #16
 1688 0024 A047     		blx	r4
 1689              	.LVL176:
 957:Src/bno055.c  **** 			(p_bno055->dev_addr,
 958:Src/bno055.c  **** 			BNO055_MAG_DATA_Y_LSB_VALUEY_REG,
 959:Src/bno055.c  **** 			data_u8, BNO055_LSB_MSB_READ_LENGTH);
 960:Src/bno055.c  **** 			data_u8[BNO055_SENSOR_DATA_LSB] =
 961:Src/bno055.c  **** 			BNO055_GET_BITSLICE(data_u8[BNO055_SENSOR_DATA_LSB],
 962:Src/bno055.c  **** 			BNO055_MAG_DATA_Y_LSB_VALUEY);
 963:Src/bno055.c  **** 			data_u8[BNO055_SENSOR_DATA_MSB] =
 964:Src/bno055.c  **** 			BNO055_GET_BITSLICE(data_u8[BNO055_SENSOR_DATA_MSB],
 965:Src/bno055.c  **** 			BNO055_MAG_DATA_Y_MSB_VALUEY);
 966:Src/bno055.c  **** 			*mag_y_s16 = (s16)((((s32)
 1690              		.loc 1 966 0
 1691 0026 9DF90520 		ldrsb	r2, [sp, #5]
 1692 002a 9DF80430 		ldrb	r3, [sp, #4]	@ zero_extendqisi2
 1693 002e 43EA0223 		orr	r3, r3, r2, lsl #8
 1694 0032 2B80     		strh	r3, [r5]	@ movhi
 1695              	.LVL177:
 1696              	.L176:
 967:Src/bno055.c  **** 			((s8)data_u8[BNO055_SENSOR_DATA_MSB])) <<
 968:Src/bno055.c  **** 			BNO055_SHIFT_EIGHT_BITS) |
 969:Src/bno055.c  **** 			(data_u8[BNO055_SENSOR_DATA_LSB]));
 970:Src/bno055.c  **** 		} else {
 971:Src/bno055.c  **** 		com_rslt = BNO055_ERROR;
 972:Src/bno055.c  **** 		}
 973:Src/bno055.c  **** 	}
 974:Src/bno055.c  **** 	return com_rslt;
 975:Src/bno055.c  **** }
 1697              		.loc 1 975 0
 1698 0034 40B2     		sxtb	r0, r0
ARM GAS  /tmp/ccVWLGiI.s 			page 50


 1699 0036 03B0     		add	sp, sp, #12
 1700              	.LCFI69:
 1701              		.cfi_remember_state
 1702              		.cfi_def_cfa_offset 12
 1703              		@ sp needed
 1704 0038 30BD     		pop	{r4, r5, pc}
 1705              	.LVL178:
 1706              	.L185:
 1707              	.LCFI70:
 1708              		.cfi_restore_state
 952:Src/bno055.c  **** 		if ((stat_s8 == BNO055_SUCCESS) ||
 1709              		.loc 1 952 0
 1710 003a 1046     		mov	r0, r2
 1711              	.LVL179:
 1712 003c FFF7FEFF 		bl	bno055_write_page_id
 1713              	.LVL180:
 1714 0040 2368     		ldr	r3, [r4]
 953:Src/bno055.c  **** 		(p_bno055->page_id == BNO055_PAGE_ZERO)) {
 1715              		.loc 1 953 0
 1716 0042 0028     		cmp	r0, #0
 1717 0044 E9D0     		beq	.L177
 1718              	.LVL181:
 953:Src/bno055.c  **** 		(p_bno055->page_id == BNO055_PAGE_ZERO)) {
 1719              		.loc 1 953 0 is_stmt 0 discriminator 1
 1720 0046 1A79     		ldrb	r2, [r3, #4]	@ zero_extendqisi2
 971:Src/bno055.c  **** 		}
 1721              		.loc 1 971 0 is_stmt 1 discriminator 1
 1722 0048 FF20     		movs	r0, #255
 953:Src/bno055.c  **** 		(p_bno055->page_id == BNO055_PAGE_ZERO)) {
 1723              		.loc 1 953 0 discriminator 1
 1724 004a 002A     		cmp	r2, #0
 1725 004c F2D1     		bne	.L176
 1726 004e E4E7     		b	.L177
 1727              	.LVL182:
 1728              	.L179:
 946:Src/bno055.c  **** 		} else {
 1729              		.loc 1 946 0
 1730 0050 8120     		movs	r0, #129
 1731              	.LVL183:
 1732 0052 EFE7     		b	.L176
 1733              	.L187:
 1734              		.align	2
 1735              	.L186:
 1736 0054 00000000 		.word	.LANCHOR0
 1737              		.cfi_endproc
 1738              	.LFE16:
 1740              		.section	.text.bno055_read_mag_z,"ax",%progbits
 1741              		.align	2
 1742              		.global	bno055_read_mag_z
 1743              		.thumb
 1744              		.thumb_func
 1746              	bno055_read_mag_z:
 1747              	.LFB17:
 976:Src/bno055.c  **** /*!
 977:Src/bno055.c  ****  *	@brief This API reads mag data z values
 978:Src/bno055.c  ****  *	from register 0x12 and 0x13 it is a two byte data
 979:Src/bno055.c  ****  *
ARM GAS  /tmp/ccVWLGiI.s 			page 51


 980:Src/bno055.c  ****  *
 981:Src/bno055.c  ****  *
 982:Src/bno055.c  ****  *
 983:Src/bno055.c  ****  *	@param mag_z_s16 : The z raw data
 984:Src/bno055.c  ****  *
 985:Src/bno055.c  ****  *
 986:Src/bno055.c  ****  *
 987:Src/bno055.c  ****  *	@return results of bus communication function
 988:Src/bno055.c  ****  *	@retval 0 -> BNO055_SUCCESS
 989:Src/bno055.c  ****  *	@retval 1 -> BNO055_ERROR
 990:Src/bno055.c  ****  *
 991:Src/bno055.c  ****  *
 992:Src/bno055.c  ****  *
 993:Src/bno055.c  ****  */
 994:Src/bno055.c  **** BNO055_RETURN_FUNCTION_TYPE bno055_read_mag_z(s16 *mag_z_s16)
 995:Src/bno055.c  **** {
 1748              		.loc 1 995 0
 1749              		.cfi_startproc
 1750              		@ args = 0, pretend = 0, frame = 8
 1751              		@ frame_needed = 0, uses_anonymous_args = 0
 1752              	.LVL184:
 1753 0000 30B5     		push	{r4, r5, lr}
 1754              	.LCFI71:
 1755              		.cfi_def_cfa_offset 12
 1756              		.cfi_offset 4, -12
 1757              		.cfi_offset 5, -8
 1758              		.cfi_offset 14, -4
 996:Src/bno055.c  **** 	/* Variable used to return value of
 997:Src/bno055.c  **** 	communication routine*/
 998:Src/bno055.c  **** 	BNO055_RETURN_FUNCTION_TYPE com_rslt = BNO055_ERROR;
 999:Src/bno055.c  **** 	/* Array holding the mag z value
1000:Src/bno055.c  **** 	data_u8[BNO055_SENSOR_DATA_LSB] - z->LSB
1001:Src/bno055.c  **** 	data_u8[BNO055_SENSOR_DATA_MSB] - z->MSB
1002:Src/bno055.c  **** 	*/
1003:Src/bno055.c  **** 	u8 data_u8[BNO055_MAG_DATA_SIZE] = {
1004:Src/bno055.c  **** 	BNO055_INIT_VALUE, BNO055_INIT_VALUE};
1005:Src/bno055.c  **** 	s8 stat_s8 = BNO055_ERROR;
1006:Src/bno055.c  **** 	/* Check the struct p_bno055 is empty */
1007:Src/bno055.c  **** 	if (p_bno055 == BNO055_INIT_VALUE) {
 1759              		.loc 1 1007 0
 1760 0002 144C     		ldr	r4, .L199
 995:Src/bno055.c  **** 	/* Variable used to return value of
 1761              		.loc 1 995 0
 1762 0004 83B0     		sub	sp, sp, #12
 1763              	.LCFI72:
 1764              		.cfi_def_cfa_offset 24
 1765              		.loc 1 1007 0
 1766 0006 2368     		ldr	r3, [r4]
1003:Src/bno055.c  **** 	BNO055_INIT_VALUE, BNO055_INIT_VALUE};
 1767              		.loc 1 1003 0
 1768 0008 0022     		movs	r2, #0
 1769 000a 8DF80420 		strb	r2, [sp, #4]
 1770 000e 8DF80520 		strb	r2, [sp, #5]
 1771              	.LVL185:
 1772              		.loc 1 1007 0
 1773 0012 EBB1     		cbz	r3, .L192
1008:Src/bno055.c  **** 		return BNO055_E_NULL_PTR;
ARM GAS  /tmp/ccVWLGiI.s 			page 52


1009:Src/bno055.c  **** 		} else {
1010:Src/bno055.c  **** 		/*condition check for page, chip id is
1011:Src/bno055.c  **** 		available in the page zero*/
1012:Src/bno055.c  **** 		if (p_bno055->page_id != BNO055_PAGE_ZERO)
 1774              		.loc 1 1012 0
 1775 0014 1979     		ldrb	r1, [r3, #4]	@ zero_extendqisi2
 1776 0016 0546     		mov	r5, r0
 1777 0018 79B9     		cbnz	r1, .L198
 1778              	.LVL186:
 1779              	.L190:
1013:Src/bno055.c  **** 			/* Write the page zero*/
1014:Src/bno055.c  **** 			stat_s8 = bno055_write_page_id(BNO055_PAGE_ZERO);
1015:Src/bno055.c  **** 		if ((stat_s8 == BNO055_SUCCESS) ||
1016:Src/bno055.c  **** 		(p_bno055->page_id == BNO055_PAGE_ZERO)) {
1017:Src/bno055.c  **** 			com_rslt = p_bno055->BNO055_BUS_READ_FUNC
 1780              		.loc 1 1017 0
 1781 001a 1C69     		ldr	r4, [r3, #16]
 1782 001c 587A     		ldrb	r0, [r3, #9]	@ zero_extendqisi2
 1783 001e 01AA     		add	r2, sp, #4
 1784 0020 0223     		movs	r3, #2
 1785 0022 1221     		movs	r1, #18
 1786 0024 A047     		blx	r4
 1787              	.LVL187:
1018:Src/bno055.c  **** 			(p_bno055->dev_addr,
1019:Src/bno055.c  **** 			BNO055_MAG_DATA_Z_LSB_VALUEZ_REG,
1020:Src/bno055.c  **** 			data_u8, BNO055_LSB_MSB_READ_LENGTH);
1021:Src/bno055.c  **** 			/*Read the mag z two bytes of data */
1022:Src/bno055.c  **** 			data_u8[BNO055_SENSOR_DATA_LSB] =
1023:Src/bno055.c  **** 			BNO055_GET_BITSLICE(data_u8[BNO055_SENSOR_DATA_LSB],
1024:Src/bno055.c  **** 			BNO055_MAG_DATA_Z_LSB_VALUEZ);
1025:Src/bno055.c  **** 			data_u8[BNO055_SENSOR_DATA_MSB] =
1026:Src/bno055.c  **** 			BNO055_GET_BITSLICE(data_u8[BNO055_SENSOR_DATA_MSB],
1027:Src/bno055.c  **** 			BNO055_MAG_DATA_Z_MSB_VALUEZ);
1028:Src/bno055.c  **** 			*mag_z_s16 = (s16)((((s32)
 1788              		.loc 1 1028 0
 1789 0026 9DF90520 		ldrsb	r2, [sp, #5]
 1790 002a 9DF80430 		ldrb	r3, [sp, #4]	@ zero_extendqisi2
 1791 002e 43EA0223 		orr	r3, r3, r2, lsl #8
 1792 0032 2B80     		strh	r3, [r5]	@ movhi
 1793              	.LVL188:
 1794              	.L189:
1029:Src/bno055.c  **** 			((s8)data_u8[BNO055_SENSOR_DATA_MSB])) <<
1030:Src/bno055.c  **** 			BNO055_SHIFT_EIGHT_BITS)
1031:Src/bno055.c  **** 			| (data_u8[BNO055_SENSOR_DATA_LSB]));
1032:Src/bno055.c  **** 		} else {
1033:Src/bno055.c  **** 		com_rslt = BNO055_ERROR;
1034:Src/bno055.c  **** 		}
1035:Src/bno055.c  **** 	}
1036:Src/bno055.c  **** 	return com_rslt;
1037:Src/bno055.c  **** }
 1795              		.loc 1 1037 0
 1796 0034 40B2     		sxtb	r0, r0
 1797 0036 03B0     		add	sp, sp, #12
 1798              	.LCFI73:
 1799              		.cfi_remember_state
 1800              		.cfi_def_cfa_offset 12
 1801              		@ sp needed
ARM GAS  /tmp/ccVWLGiI.s 			page 53


 1802 0038 30BD     		pop	{r4, r5, pc}
 1803              	.LVL189:
 1804              	.L198:
 1805              	.LCFI74:
 1806              		.cfi_restore_state
1014:Src/bno055.c  **** 		if ((stat_s8 == BNO055_SUCCESS) ||
 1807              		.loc 1 1014 0
 1808 003a 1046     		mov	r0, r2
 1809              	.LVL190:
 1810 003c FFF7FEFF 		bl	bno055_write_page_id
 1811              	.LVL191:
 1812 0040 2368     		ldr	r3, [r4]
1015:Src/bno055.c  **** 		(p_bno055->page_id == BNO055_PAGE_ZERO)) {
 1813              		.loc 1 1015 0
 1814 0042 0028     		cmp	r0, #0
 1815 0044 E9D0     		beq	.L190
 1816              	.LVL192:
1015:Src/bno055.c  **** 		(p_bno055->page_id == BNO055_PAGE_ZERO)) {
 1817              		.loc 1 1015 0 is_stmt 0 discriminator 1
 1818 0046 1A79     		ldrb	r2, [r3, #4]	@ zero_extendqisi2
1033:Src/bno055.c  **** 		}
 1819              		.loc 1 1033 0 is_stmt 1 discriminator 1
 1820 0048 FF20     		movs	r0, #255
1015:Src/bno055.c  **** 		(p_bno055->page_id == BNO055_PAGE_ZERO)) {
 1821              		.loc 1 1015 0 discriminator 1
 1822 004a 002A     		cmp	r2, #0
 1823 004c F2D1     		bne	.L189
 1824 004e E4E7     		b	.L190
 1825              	.LVL193:
 1826              	.L192:
1008:Src/bno055.c  **** 		} else {
 1827              		.loc 1 1008 0
 1828 0050 8120     		movs	r0, #129
 1829              	.LVL194:
 1830 0052 EFE7     		b	.L189
 1831              	.L200:
 1832              		.align	2
 1833              	.L199:
 1834 0054 00000000 		.word	.LANCHOR0
 1835              		.cfi_endproc
 1836              	.LFE17:
 1838              		.section	.text.bno055_read_mag_xyz,"ax",%progbits
 1839              		.align	2
 1840              		.global	bno055_read_mag_xyz
 1841              		.thumb
 1842              		.thumb_func
 1844              	bno055_read_mag_xyz:
 1845              	.LFB18:
1038:Src/bno055.c  **** /*!
1039:Src/bno055.c  ****  *	@brief This API reads mag data xyz values
1040:Src/bno055.c  ****  *	from register 0x0E to 0x13 it is a six byte data
1041:Src/bno055.c  ****  *
1042:Src/bno055.c  ****  *
1043:Src/bno055.c  ****  *	@param mag : The mag xyz values
1044:Src/bno055.c  ****  *
1045:Src/bno055.c  ****  *	Parameter |    result
1046:Src/bno055.c  ****  *  --------- | -----------------
ARM GAS  /tmp/ccVWLGiI.s 			page 54


1047:Src/bno055.c  ****  *	 x        | The mag x data
1048:Src/bno055.c  ****  *	 y        | The mag y data
1049:Src/bno055.c  ****  *	 z        | The mag z data
1050:Src/bno055.c  ****  *
1051:Src/bno055.c  ****  *
1052:Src/bno055.c  ****  *
1053:Src/bno055.c  ****  *	@return results of bus communication function
1054:Src/bno055.c  ****  *	@retval 0 -> BNO055_SUCCESS
1055:Src/bno055.c  ****  *	@retval 1 -> BNO055_ERROR
1056:Src/bno055.c  ****  *
1057:Src/bno055.c  ****  */
1058:Src/bno055.c  **** BNO055_RETURN_FUNCTION_TYPE bno055_read_mag_xyz(struct bno055_mag_t *mag)
1059:Src/bno055.c  **** {
 1846              		.loc 1 1059 0
 1847              		.cfi_startproc
 1848              		@ args = 0, pretend = 0, frame = 8
 1849              		@ frame_needed = 0, uses_anonymous_args = 0
 1850              	.LVL195:
 1851 0000 F0B5     		push	{r4, r5, r6, r7, lr}
 1852              	.LCFI75:
 1853              		.cfi_def_cfa_offset 20
 1854              		.cfi_offset 4, -20
 1855              		.cfi_offset 5, -16
 1856              		.cfi_offset 6, -12
 1857              		.cfi_offset 7, -8
 1858              		.cfi_offset 14, -4
1060:Src/bno055.c  **** 	/* Variable used to return value of
1061:Src/bno055.c  **** 	communication routine*/
1062:Src/bno055.c  **** 	BNO055_RETURN_FUNCTION_TYPE com_rslt = BNO055_ERROR;
1063:Src/bno055.c  **** 	/* Array holding the mag xyz value
1064:Src/bno055.c  **** 	data_u8[BNO055_SENSOR_DATA_XYZ_X_LSB] - x->LSB
1065:Src/bno055.c  **** 	data_u8[BNO055_SENSOR_DATA_XYZ_X_MSB] - x->MSB
1066:Src/bno055.c  **** 	data_u8[BNO055_SENSOR_DATA_XYZ_Y_LSB] - y->MSB
1067:Src/bno055.c  **** 	data_u8[BNO055_SENSOR_DATA_XYZ_Y_MSB] - y->MSB
1068:Src/bno055.c  **** 	data_u8[BNO055_SENSOR_DATA_XYZ_Z_LSB] - z->MSB
1069:Src/bno055.c  **** 	data_u8[BNO055_SENSOR_DATA_XYZ_Z_MSB] - z->MSB
1070:Src/bno055.c  **** 	*/
1071:Src/bno055.c  **** 	u8 data_u8[BNO055_MAG_XYZ_DATA_SIZE] = {
1072:Src/bno055.c  **** 	BNO055_INIT_VALUE, BNO055_INIT_VALUE,
1073:Src/bno055.c  **** 	BNO055_INIT_VALUE, BNO055_INIT_VALUE,
1074:Src/bno055.c  **** 	BNO055_INIT_VALUE, BNO055_INIT_VALUE};
1075:Src/bno055.c  **** 	s8 stat_s8 = BNO055_ERROR;
1076:Src/bno055.c  **** 	/* Check the struct p_bno055 is empty */
1077:Src/bno055.c  **** 	if (p_bno055 == BNO055_INIT_VALUE) {
 1859              		.loc 1 1077 0
 1860 0002 1F4D     		ldr	r5, .L212
1059:Src/bno055.c  **** 	/* Variable used to return value of
 1861              		.loc 1 1059 0
 1862 0004 83B0     		sub	sp, sp, #12
 1863              	.LCFI76:
 1864              		.cfi_def_cfa_offset 32
 1865              		.loc 1 1077 0
 1866 0006 2A68     		ldr	r2, [r5]
1071:Src/bno055.c  **** 	BNO055_INIT_VALUE, BNO055_INIT_VALUE,
 1867              		.loc 1 1071 0
 1868 0008 0023     		movs	r3, #0
 1869 000a 8DF80030 		strb	r3, [sp]
ARM GAS  /tmp/ccVWLGiI.s 			page 55


 1870 000e 8DF80130 		strb	r3, [sp, #1]
 1871 0012 8DF80230 		strb	r3, [sp, #2]
 1872 0016 8DF80330 		strb	r3, [sp, #3]
 1873 001a 8DF80430 		strb	r3, [sp, #4]
 1874 001e 8DF80530 		strb	r3, [sp, #5]
 1875              	.LVL196:
 1876              		.loc 1 1077 0
 1877 0022 5AB3     		cbz	r2, .L205
1078:Src/bno055.c  **** 		return BNO055_E_NULL_PTR;
1079:Src/bno055.c  **** 		} else {
1080:Src/bno055.c  **** 		/*condition check for page, chip id is
1081:Src/bno055.c  **** 		available in the page zero*/
1082:Src/bno055.c  **** 		if (p_bno055->page_id != BNO055_PAGE_ZERO)
 1878              		.loc 1 1082 0
 1879 0024 1179     		ldrb	r1, [r2, #4]	@ zero_extendqisi2
 1880 0026 0446     		mov	r4, r0
 1881 0028 E9B9     		cbnz	r1, .L211
 1882              	.LVL197:
 1883              	.L203:
1083:Src/bno055.c  **** 			/* Write the page zero*/
1084:Src/bno055.c  **** 			stat_s8 = bno055_write_page_id(BNO055_PAGE_ZERO);
1085:Src/bno055.c  **** 		if ((stat_s8 == BNO055_SUCCESS) ||
1086:Src/bno055.c  **** 		(p_bno055->page_id == BNO055_PAGE_ZERO)) {
1087:Src/bno055.c  **** 			/*Read the six byte value of mag xyz*/
1088:Src/bno055.c  **** 			com_rslt = p_bno055->BNO055_BUS_READ_FUNC
 1884              		.loc 1 1088 0
 1885 002a 1569     		ldr	r5, [r2, #16]
 1886 002c 507A     		ldrb	r0, [r2, #9]	@ zero_extendqisi2
 1887 002e 0E21     		movs	r1, #14
 1888 0030 6A46     		mov	r2, sp
 1889 0032 0623     		movs	r3, #6
 1890 0034 A847     		blx	r5
 1891              	.LVL198:
1089:Src/bno055.c  **** 			(p_bno055->dev_addr,
1090:Src/bno055.c  **** 			BNO055_MAG_DATA_X_LSB_VALUEX_REG,
1091:Src/bno055.c  **** 			data_u8, BNO055_MAG_XYZ_DATA_SIZE);
1092:Src/bno055.c  **** 			/* Data X*/
1093:Src/bno055.c  **** 			data_u8[BNO055_SENSOR_DATA_XYZ_X_LSB] =
1094:Src/bno055.c  **** 			BNO055_GET_BITSLICE(
1095:Src/bno055.c  **** 			data_u8[BNO055_SENSOR_DATA_XYZ_X_LSB],
1096:Src/bno055.c  **** 			BNO055_MAG_DATA_X_LSB_VALUEX);
1097:Src/bno055.c  **** 			data_u8[BNO055_SENSOR_DATA_XYZ_X_MSB] =
1098:Src/bno055.c  **** 			BNO055_GET_BITSLICE(
1099:Src/bno055.c  **** 			data_u8[BNO055_SENSOR_DATA_XYZ_X_MSB],
1100:Src/bno055.c  **** 			BNO055_MAG_DATA_X_MSB_VALUEX);
1101:Src/bno055.c  **** 			mag->x = (s16)((((s32)
 1892              		.loc 1 1101 0
 1893 0036 9DF90170 		ldrsb	r7, [sp, #1]
 1894 003a 9DF80010 		ldrb	r1, [sp]	@ zero_extendqisi2
1102:Src/bno055.c  **** 			((s8)data_u8[BNO055_SENSOR_DATA_XYZ_X_MSB])) <<
1103:Src/bno055.c  **** 			BNO055_SHIFT_EIGHT_BITS) |
1104:Src/bno055.c  **** 			(data_u8[BNO055_SENSOR_DATA_XYZ_X_LSB]));
1105:Src/bno055.c  **** 			/* Data Y*/
1106:Src/bno055.c  **** 			data_u8[BNO055_SENSOR_DATA_XYZ_Y_LSB] =
1107:Src/bno055.c  **** 			BNO055_GET_BITSLICE(
1108:Src/bno055.c  **** 			data_u8[BNO055_SENSOR_DATA_XYZ_Y_LSB],
1109:Src/bno055.c  **** 			BNO055_MAG_DATA_Y_LSB_VALUEY);
ARM GAS  /tmp/ccVWLGiI.s 			page 56


1110:Src/bno055.c  **** 			data_u8[BNO055_SENSOR_DATA_XYZ_Y_MSB] =
1111:Src/bno055.c  **** 			BNO055_GET_BITSLICE(
1112:Src/bno055.c  **** 			data_u8[BNO055_SENSOR_DATA_XYZ_Y_MSB],
1113:Src/bno055.c  **** 			BNO055_MAG_DATA_Y_MSB_VALUEY);
1114:Src/bno055.c  **** 			mag->y = (s16)((((s32)
 1895              		.loc 1 1114 0
 1896 003e 9DF90360 		ldrsb	r6, [sp, #3]
 1897 0042 9DF80220 		ldrb	r2, [sp, #2]	@ zero_extendqisi2
1115:Src/bno055.c  **** 			((s8)data_u8[BNO055_SENSOR_DATA_XYZ_Y_MSB])) <<
1116:Src/bno055.c  **** 			BNO055_SHIFT_EIGHT_BITS) |
1117:Src/bno055.c  **** 			(data_u8[BNO055_SENSOR_DATA_XYZ_Y_LSB]));
1118:Src/bno055.c  **** 			/* Data Z*/
1119:Src/bno055.c  **** 			data_u8[BNO055_SENSOR_DATA_XYZ_Z_LSB] =
1120:Src/bno055.c  **** 			BNO055_GET_BITSLICE(
1121:Src/bno055.c  **** 			data_u8[BNO055_SENSOR_DATA_XYZ_Z_LSB],
1122:Src/bno055.c  **** 			BNO055_MAG_DATA_Z_LSB_VALUEZ);
1123:Src/bno055.c  **** 			data_u8[BNO055_SENSOR_DATA_XYZ_Z_MSB] =
1124:Src/bno055.c  **** 			BNO055_GET_BITSLICE(
1125:Src/bno055.c  **** 			data_u8[BNO055_SENSOR_DATA_XYZ_Z_MSB],
1126:Src/bno055.c  **** 			BNO055_MAG_DATA_Z_MSB_VALUEZ);
1127:Src/bno055.c  **** 			mag->z = (s16)((((s32)
 1898              		.loc 1 1127 0
 1899 0046 9DF90550 		ldrsb	r5, [sp, #5]
 1900 004a 9DF80430 		ldrb	r3, [sp, #4]	@ zero_extendqisi2
1101:Src/bno055.c  **** 			((s8)data_u8[BNO055_SENSOR_DATA_XYZ_X_MSB])) <<
 1901              		.loc 1 1101 0
 1902 004e 41EA0721 		orr	r1, r1, r7, lsl #8
1114:Src/bno055.c  **** 			((s8)data_u8[BNO055_SENSOR_DATA_XYZ_Y_MSB])) <<
 1903              		.loc 1 1114 0
 1904 0052 42EA0622 		orr	r2, r2, r6, lsl #8
 1905              		.loc 1 1127 0
 1906 0056 43EA0523 		orr	r3, r3, r5, lsl #8
1101:Src/bno055.c  **** 			((s8)data_u8[BNO055_SENSOR_DATA_XYZ_X_MSB])) <<
 1907              		.loc 1 1101 0
 1908 005a 2180     		strh	r1, [r4]	@ movhi
1114:Src/bno055.c  **** 			((s8)data_u8[BNO055_SENSOR_DATA_XYZ_Y_MSB])) <<
 1909              		.loc 1 1114 0
 1910 005c 6280     		strh	r2, [r4, #2]	@ movhi
 1911              		.loc 1 1127 0
 1912 005e A380     		strh	r3, [r4, #4]	@ movhi
 1913              	.LVL199:
 1914              	.L202:
1128:Src/bno055.c  **** 			((s8)data_u8[BNO055_SENSOR_DATA_XYZ_Z_MSB])) <<
1129:Src/bno055.c  **** 			BNO055_SHIFT_EIGHT_BITS)
1130:Src/bno055.c  **** 			| (data_u8[BNO055_SENSOR_DATA_XYZ_Z_LSB]));
1131:Src/bno055.c  **** 		} else {
1132:Src/bno055.c  **** 		com_rslt = BNO055_ERROR;
1133:Src/bno055.c  **** 		}
1134:Src/bno055.c  **** 	}
1135:Src/bno055.c  **** 	return com_rslt;
1136:Src/bno055.c  **** }
 1915              		.loc 1 1136 0
 1916 0060 40B2     		sxtb	r0, r0
 1917 0062 03B0     		add	sp, sp, #12
 1918              	.LCFI77:
 1919              		.cfi_remember_state
 1920              		.cfi_def_cfa_offset 20
ARM GAS  /tmp/ccVWLGiI.s 			page 57


 1921              		@ sp needed
 1922 0064 F0BD     		pop	{r4, r5, r6, r7, pc}
 1923              	.LVL200:
 1924              	.L211:
 1925              	.LCFI78:
 1926              		.cfi_restore_state
1084:Src/bno055.c  **** 		if ((stat_s8 == BNO055_SUCCESS) ||
 1927              		.loc 1 1084 0
 1928 0066 1846     		mov	r0, r3
 1929              	.LVL201:
 1930 0068 FFF7FEFF 		bl	bno055_write_page_id
 1931              	.LVL202:
 1932 006c 2A68     		ldr	r2, [r5]
1085:Src/bno055.c  **** 		(p_bno055->page_id == BNO055_PAGE_ZERO)) {
 1933              		.loc 1 1085 0
 1934 006e 0028     		cmp	r0, #0
 1935 0070 DBD0     		beq	.L203
 1936              	.LVL203:
1085:Src/bno055.c  **** 		(p_bno055->page_id == BNO055_PAGE_ZERO)) {
 1937              		.loc 1 1085 0 is_stmt 0 discriminator 1
 1938 0072 1379     		ldrb	r3, [r2, #4]	@ zero_extendqisi2
1132:Src/bno055.c  **** 		}
 1939              		.loc 1 1132 0 is_stmt 1 discriminator 1
 1940 0074 FF20     		movs	r0, #255
1085:Src/bno055.c  **** 		(p_bno055->page_id == BNO055_PAGE_ZERO)) {
 1941              		.loc 1 1085 0 discriminator 1
 1942 0076 002B     		cmp	r3, #0
 1943 0078 F2D1     		bne	.L202
 1944 007a D6E7     		b	.L203
 1945              	.LVL204:
 1946              	.L205:
1078:Src/bno055.c  **** 		} else {
 1947              		.loc 1 1078 0
 1948 007c 8120     		movs	r0, #129
 1949              	.LVL205:
 1950 007e EFE7     		b	.L202
 1951              	.L213:
 1952              		.align	2
 1953              	.L212:
 1954 0080 00000000 		.word	.LANCHOR0
 1955              		.cfi_endproc
 1956              	.LFE18:
 1958              		.section	.text.bno055_read_gyro_x,"ax",%progbits
 1959              		.align	2
 1960              		.global	bno055_read_gyro_x
 1961              		.thumb
 1962              		.thumb_func
 1964              	bno055_read_gyro_x:
 1965              	.LFB19:
1137:Src/bno055.c  **** /*!
1138:Src/bno055.c  ****  *	@brief This API reads gyro data x values
1139:Src/bno055.c  ****  *	from register 0x14 and 0x15 it is a two byte data
1140:Src/bno055.c  ****  *
1141:Src/bno055.c  ****  *
1142:Src/bno055.c  ****  *
1143:Src/bno055.c  ****  *
1144:Src/bno055.c  ****  *	@param gyro_x_s16 : The x raw data
ARM GAS  /tmp/ccVWLGiI.s 			page 58


1145:Src/bno055.c  ****  *
1146:Src/bno055.c  ****  *
1147:Src/bno055.c  ****  *
1148:Src/bno055.c  ****  *	@return results of bus communication function
1149:Src/bno055.c  ****  *	@retval 0 -> BNO055_SUCCESS
1150:Src/bno055.c  ****  *	@retval 1 -> BNO055_ERROR
1151:Src/bno055.c  ****  *
1152:Src/bno055.c  ****  *
1153:Src/bno055.c  ****  */
1154:Src/bno055.c  **** BNO055_RETURN_FUNCTION_TYPE bno055_read_gyro_x(s16 *gyro_x_s16)
1155:Src/bno055.c  **** {
 1966              		.loc 1 1155 0
 1967              		.cfi_startproc
 1968              		@ args = 0, pretend = 0, frame = 8
 1969              		@ frame_needed = 0, uses_anonymous_args = 0
 1970              	.LVL206:
 1971 0000 30B5     		push	{r4, r5, lr}
 1972              	.LCFI79:
 1973              		.cfi_def_cfa_offset 12
 1974              		.cfi_offset 4, -12
 1975              		.cfi_offset 5, -8
 1976              		.cfi_offset 14, -4
1156:Src/bno055.c  **** 	/* Variable used to return value of
1157:Src/bno055.c  **** 	communication routine*/
1158:Src/bno055.c  **** 	BNO055_RETURN_FUNCTION_TYPE com_rslt = BNO055_ERROR;
1159:Src/bno055.c  **** 	u8 data_u8[BNO055_GYRO_DATA_SIZE] = {
1160:Src/bno055.c  **** 	BNO055_INIT_VALUE, BNO055_INIT_VALUE};
1161:Src/bno055.c  **** 	s8 stat_s8 = BNO055_ERROR;
1162:Src/bno055.c  **** 	/* Check the struct p_bno055 is empty */
1163:Src/bno055.c  **** 	if (p_bno055 == BNO055_INIT_VALUE) {
 1977              		.loc 1 1163 0
 1978 0002 144C     		ldr	r4, .L225
1155:Src/bno055.c  **** 	/* Variable used to return value of
 1979              		.loc 1 1155 0
 1980 0004 83B0     		sub	sp, sp, #12
 1981              	.LCFI80:
 1982              		.cfi_def_cfa_offset 24
 1983              		.loc 1 1163 0
 1984 0006 2368     		ldr	r3, [r4]
1159:Src/bno055.c  **** 	BNO055_INIT_VALUE, BNO055_INIT_VALUE};
 1985              		.loc 1 1159 0
 1986 0008 0022     		movs	r2, #0
 1987 000a 8DF80420 		strb	r2, [sp, #4]
 1988 000e 8DF80520 		strb	r2, [sp, #5]
 1989              	.LVL207:
 1990              		.loc 1 1163 0
 1991 0012 EBB1     		cbz	r3, .L218
1164:Src/bno055.c  **** 		return BNO055_E_NULL_PTR;
1165:Src/bno055.c  **** 		} else {
1166:Src/bno055.c  **** 		/*condition check for page, chip id is
1167:Src/bno055.c  **** 		available in the page zero*/
1168:Src/bno055.c  **** 		if (p_bno055->page_id != BNO055_PAGE_ZERO)
 1992              		.loc 1 1168 0
 1993 0014 1979     		ldrb	r1, [r3, #4]	@ zero_extendqisi2
 1994 0016 0546     		mov	r5, r0
 1995 0018 79B9     		cbnz	r1, .L224
 1996              	.LVL208:
ARM GAS  /tmp/ccVWLGiI.s 			page 59


 1997              	.L216:
1169:Src/bno055.c  **** 			/* Write the page zero*/
1170:Src/bno055.c  **** 			stat_s8 = bno055_write_page_id(BNO055_PAGE_ZERO);
1171:Src/bno055.c  **** 		if ((stat_s8 == BNO055_SUCCESS) ||
1172:Src/bno055.c  **** 		(p_bno055->page_id == BNO055_PAGE_ZERO)) {
1173:Src/bno055.c  **** 			/* Read the gyro 16 bit x value*/
1174:Src/bno055.c  **** 			com_rslt = p_bno055->BNO055_BUS_READ_FUNC
 1998              		.loc 1 1174 0
 1999 001a 1C69     		ldr	r4, [r3, #16]
 2000 001c 587A     		ldrb	r0, [r3, #9]	@ zero_extendqisi2
 2001 001e 01AA     		add	r2, sp, #4
 2002 0020 0223     		movs	r3, #2
 2003 0022 1421     		movs	r1, #20
 2004 0024 A047     		blx	r4
 2005              	.LVL209:
1175:Src/bno055.c  **** 			(p_bno055->dev_addr,
1176:Src/bno055.c  **** 			BNO055_GYRO_DATA_X_LSB_VALUEX_REG,
1177:Src/bno055.c  **** 			data_u8, BNO055_LSB_MSB_READ_LENGTH);
1178:Src/bno055.c  **** 			data_u8[BNO055_SENSOR_DATA_LSB] =
1179:Src/bno055.c  **** 			BNO055_GET_BITSLICE(data_u8[BNO055_SENSOR_DATA_LSB],
1180:Src/bno055.c  **** 			BNO055_GYRO_DATA_X_LSB_VALUEX);
1181:Src/bno055.c  **** 			data_u8[BNO055_SENSOR_DATA_MSB] =
1182:Src/bno055.c  **** 			BNO055_GET_BITSLICE(data_u8[BNO055_SENSOR_DATA_MSB],
1183:Src/bno055.c  **** 			BNO055_GYRO_DATA_X_MSB_VALUEX);
1184:Src/bno055.c  **** 			*gyro_x_s16 = (s16)((((s32)
 2006              		.loc 1 1184 0
 2007 0026 9DF90520 		ldrsb	r2, [sp, #5]
 2008 002a 9DF80430 		ldrb	r3, [sp, #4]	@ zero_extendqisi2
 2009 002e 43EA0223 		orr	r3, r3, r2, lsl #8
 2010 0032 2B80     		strh	r3, [r5]	@ movhi
 2011              	.LVL210:
 2012              	.L215:
1185:Src/bno055.c  **** 			((s8)data_u8[BNO055_SENSOR_DATA_MSB])) <<
1186:Src/bno055.c  **** 			BNO055_SHIFT_EIGHT_BITS) |
1187:Src/bno055.c  **** 			(data_u8[BNO055_SENSOR_DATA_LSB]));
1188:Src/bno055.c  **** 		} else {
1189:Src/bno055.c  **** 		com_rslt = BNO055_ERROR;
1190:Src/bno055.c  **** 		}
1191:Src/bno055.c  **** 	}
1192:Src/bno055.c  **** 	return com_rslt;
1193:Src/bno055.c  **** }
 2013              		.loc 1 1193 0
 2014 0034 40B2     		sxtb	r0, r0
 2015 0036 03B0     		add	sp, sp, #12
 2016              	.LCFI81:
 2017              		.cfi_remember_state
 2018              		.cfi_def_cfa_offset 12
 2019              		@ sp needed
 2020 0038 30BD     		pop	{r4, r5, pc}
 2021              	.LVL211:
 2022              	.L224:
 2023              	.LCFI82:
 2024              		.cfi_restore_state
1170:Src/bno055.c  **** 		if ((stat_s8 == BNO055_SUCCESS) ||
 2025              		.loc 1 1170 0
 2026 003a 1046     		mov	r0, r2
 2027              	.LVL212:
ARM GAS  /tmp/ccVWLGiI.s 			page 60


 2028 003c FFF7FEFF 		bl	bno055_write_page_id
 2029              	.LVL213:
 2030 0040 2368     		ldr	r3, [r4]
1171:Src/bno055.c  **** 		(p_bno055->page_id == BNO055_PAGE_ZERO)) {
 2031              		.loc 1 1171 0
 2032 0042 0028     		cmp	r0, #0
 2033 0044 E9D0     		beq	.L216
 2034              	.LVL214:
1171:Src/bno055.c  **** 		(p_bno055->page_id == BNO055_PAGE_ZERO)) {
 2035              		.loc 1 1171 0 is_stmt 0 discriminator 1
 2036 0046 1A79     		ldrb	r2, [r3, #4]	@ zero_extendqisi2
1189:Src/bno055.c  **** 		}
 2037              		.loc 1 1189 0 is_stmt 1 discriminator 1
 2038 0048 FF20     		movs	r0, #255
1171:Src/bno055.c  **** 		(p_bno055->page_id == BNO055_PAGE_ZERO)) {
 2039              		.loc 1 1171 0 discriminator 1
 2040 004a 002A     		cmp	r2, #0
 2041 004c F2D1     		bne	.L215
 2042 004e E4E7     		b	.L216
 2043              	.LVL215:
 2044              	.L218:
1164:Src/bno055.c  **** 		} else {
 2045              		.loc 1 1164 0
 2046 0050 8120     		movs	r0, #129
 2047              	.LVL216:
 2048 0052 EFE7     		b	.L215
 2049              	.L226:
 2050              		.align	2
 2051              	.L225:
 2052 0054 00000000 		.word	.LANCHOR0
 2053              		.cfi_endproc
 2054              	.LFE19:
 2056              		.section	.text.bno055_read_gyro_y,"ax",%progbits
 2057              		.align	2
 2058              		.global	bno055_read_gyro_y
 2059              		.thumb
 2060              		.thumb_func
 2062              	bno055_read_gyro_y:
 2063              	.LFB20:
1194:Src/bno055.c  **** /*!
1195:Src/bno055.c  ****  *	@brief This API reads gyro data y values
1196:Src/bno055.c  ****  *	from register 0x16 and 0x17 it is a two byte data
1197:Src/bno055.c  ****  *
1198:Src/bno055.c  ****  *
1199:Src/bno055.c  ****  *
1200:Src/bno055.c  ****  *
1201:Src/bno055.c  ****  *	@param gyro_y_s16 : The y raw data
1202:Src/bno055.c  ****  *
1203:Src/bno055.c  ****  *
1204:Src/bno055.c  ****  *
1205:Src/bno055.c  ****  *	@return results of bus communication function
1206:Src/bno055.c  ****  *	@retval 0 -> BNO055_SUCCESS
1207:Src/bno055.c  ****  *	@retval 1 -> BNO055_ERROR
1208:Src/bno055.c  ****  *
1209:Src/bno055.c  ****  *
1210:Src/bno055.c  ****  */
1211:Src/bno055.c  **** BNO055_RETURN_FUNCTION_TYPE bno055_read_gyro_y(s16 *gyro_y_s16)
ARM GAS  /tmp/ccVWLGiI.s 			page 61


1212:Src/bno055.c  **** {
 2064              		.loc 1 1212 0
 2065              		.cfi_startproc
 2066              		@ args = 0, pretend = 0, frame = 8
 2067              		@ frame_needed = 0, uses_anonymous_args = 0
 2068              	.LVL217:
 2069 0000 30B5     		push	{r4, r5, lr}
 2070              	.LCFI83:
 2071              		.cfi_def_cfa_offset 12
 2072              		.cfi_offset 4, -12
 2073              		.cfi_offset 5, -8
 2074              		.cfi_offset 14, -4
1213:Src/bno055.c  **** 	/* Variable used to return value of
1214:Src/bno055.c  **** 	communication routine*/
1215:Src/bno055.c  **** 	BNO055_RETURN_FUNCTION_TYPE com_rslt = BNO055_ERROR;
1216:Src/bno055.c  **** 	u8 data_u8[BNO055_GYRO_DATA_SIZE] = {
1217:Src/bno055.c  **** 	BNO055_INIT_VALUE, BNO055_INIT_VALUE};
1218:Src/bno055.c  **** 	s8 stat_s8 = BNO055_ERROR;
1219:Src/bno055.c  **** 	/* Check the struct p_bno055 is empty */
1220:Src/bno055.c  **** 	if (p_bno055 == BNO055_INIT_VALUE) {
 2075              		.loc 1 1220 0
 2076 0002 144C     		ldr	r4, .L238
1212:Src/bno055.c  **** 	/* Variable used to return value of
 2077              		.loc 1 1212 0
 2078 0004 83B0     		sub	sp, sp, #12
 2079              	.LCFI84:
 2080              		.cfi_def_cfa_offset 24
 2081              		.loc 1 1220 0
 2082 0006 2368     		ldr	r3, [r4]
1216:Src/bno055.c  **** 	BNO055_INIT_VALUE, BNO055_INIT_VALUE};
 2083              		.loc 1 1216 0
 2084 0008 0022     		movs	r2, #0
 2085 000a 8DF80420 		strb	r2, [sp, #4]
 2086 000e 8DF80520 		strb	r2, [sp, #5]
 2087              	.LVL218:
 2088              		.loc 1 1220 0
 2089 0012 EBB1     		cbz	r3, .L231
1221:Src/bno055.c  **** 		return BNO055_E_NULL_PTR;
1222:Src/bno055.c  **** 		} else {
1223:Src/bno055.c  **** 		/*condition check for page, chip id is
1224:Src/bno055.c  **** 		available in the page zero*/
1225:Src/bno055.c  **** 		if (p_bno055->page_id != BNO055_PAGE_ZERO)
 2090              		.loc 1 1225 0
 2091 0014 1979     		ldrb	r1, [r3, #4]	@ zero_extendqisi2
 2092 0016 0546     		mov	r5, r0
 2093 0018 79B9     		cbnz	r1, .L237
 2094              	.LVL219:
 2095              	.L229:
1226:Src/bno055.c  **** 			/* Write the page zero*/
1227:Src/bno055.c  **** 			stat_s8 = bno055_write_page_id(BNO055_PAGE_ZERO);
1228:Src/bno055.c  **** 		if ((stat_s8 == BNO055_SUCCESS) ||
1229:Src/bno055.c  **** 		(p_bno055->page_id == BNO055_PAGE_ZERO)) {
1230:Src/bno055.c  **** 			/* Read the value of gyro y */
1231:Src/bno055.c  **** 			com_rslt = p_bno055->BNO055_BUS_READ_FUNC
 2096              		.loc 1 1231 0
 2097 001a 1C69     		ldr	r4, [r3, #16]
 2098 001c 587A     		ldrb	r0, [r3, #9]	@ zero_extendqisi2
ARM GAS  /tmp/ccVWLGiI.s 			page 62


 2099 001e 01AA     		add	r2, sp, #4
 2100 0020 0223     		movs	r3, #2
 2101 0022 1621     		movs	r1, #22
 2102 0024 A047     		blx	r4
 2103              	.LVL220:
1232:Src/bno055.c  **** 			(p_bno055->dev_addr,
1233:Src/bno055.c  **** 			BNO055_GYRO_DATA_Y_LSB_VALUEY_REG,
1234:Src/bno055.c  **** 			data_u8, BNO055_LSB_MSB_READ_LENGTH);
1235:Src/bno055.c  **** 			data_u8[BNO055_SENSOR_DATA_LSB] =
1236:Src/bno055.c  **** 			BNO055_GET_BITSLICE(data_u8[BNO055_SENSOR_DATA_LSB],
1237:Src/bno055.c  **** 			BNO055_GYRO_DATA_Y_LSB_VALUEY);
1238:Src/bno055.c  **** 			data_u8[BNO055_SENSOR_DATA_MSB] =
1239:Src/bno055.c  **** 			BNO055_GET_BITSLICE(data_u8[BNO055_SENSOR_DATA_MSB],
1240:Src/bno055.c  **** 			BNO055_GYRO_DATA_Y_MSB_VALUEY);
1241:Src/bno055.c  **** 			*gyro_y_s16 = (s16)((((s32)
 2104              		.loc 1 1241 0
 2105 0026 9DF90520 		ldrsb	r2, [sp, #5]
 2106 002a 9DF80430 		ldrb	r3, [sp, #4]	@ zero_extendqisi2
 2107 002e 43EA0223 		orr	r3, r3, r2, lsl #8
 2108 0032 2B80     		strh	r3, [r5]	@ movhi
 2109              	.LVL221:
 2110              	.L228:
1242:Src/bno055.c  **** 			((s8)data_u8[BNO055_SENSOR_DATA_MSB])) <<
1243:Src/bno055.c  **** 			BNO055_SHIFT_EIGHT_BITS)
1244:Src/bno055.c  **** 			| (data_u8[BNO055_SENSOR_DATA_LSB]));
1245:Src/bno055.c  **** 		} else {
1246:Src/bno055.c  **** 		com_rslt = BNO055_ERROR;
1247:Src/bno055.c  **** 		}
1248:Src/bno055.c  **** 	}
1249:Src/bno055.c  **** 	return com_rslt;
1250:Src/bno055.c  **** }
 2111              		.loc 1 1250 0
 2112 0034 40B2     		sxtb	r0, r0
 2113 0036 03B0     		add	sp, sp, #12
 2114              	.LCFI85:
 2115              		.cfi_remember_state
 2116              		.cfi_def_cfa_offset 12
 2117              		@ sp needed
 2118 0038 30BD     		pop	{r4, r5, pc}
 2119              	.LVL222:
 2120              	.L237:
 2121              	.LCFI86:
 2122              		.cfi_restore_state
1227:Src/bno055.c  **** 		if ((stat_s8 == BNO055_SUCCESS) ||
 2123              		.loc 1 1227 0
 2124 003a 1046     		mov	r0, r2
 2125              	.LVL223:
 2126 003c FFF7FEFF 		bl	bno055_write_page_id
 2127              	.LVL224:
 2128 0040 2368     		ldr	r3, [r4]
1228:Src/bno055.c  **** 		(p_bno055->page_id == BNO055_PAGE_ZERO)) {
 2129              		.loc 1 1228 0
 2130 0042 0028     		cmp	r0, #0
 2131 0044 E9D0     		beq	.L229
 2132              	.LVL225:
1228:Src/bno055.c  **** 		(p_bno055->page_id == BNO055_PAGE_ZERO)) {
 2133              		.loc 1 1228 0 is_stmt 0 discriminator 1
ARM GAS  /tmp/ccVWLGiI.s 			page 63


 2134 0046 1A79     		ldrb	r2, [r3, #4]	@ zero_extendqisi2
1246:Src/bno055.c  **** 		}
 2135              		.loc 1 1246 0 is_stmt 1 discriminator 1
 2136 0048 FF20     		movs	r0, #255
1228:Src/bno055.c  **** 		(p_bno055->page_id == BNO055_PAGE_ZERO)) {
 2137              		.loc 1 1228 0 discriminator 1
 2138 004a 002A     		cmp	r2, #0
 2139 004c F2D1     		bne	.L228
 2140 004e E4E7     		b	.L229
 2141              	.LVL226:
 2142              	.L231:
1221:Src/bno055.c  **** 		} else {
 2143              		.loc 1 1221 0
 2144 0050 8120     		movs	r0, #129
 2145              	.LVL227:
 2146 0052 EFE7     		b	.L228
 2147              	.L239:
 2148              		.align	2
 2149              	.L238:
 2150 0054 00000000 		.word	.LANCHOR0
 2151              		.cfi_endproc
 2152              	.LFE20:
 2154              		.section	.text.bno055_read_gyro_z,"ax",%progbits
 2155              		.align	2
 2156              		.global	bno055_read_gyro_z
 2157              		.thumb
 2158              		.thumb_func
 2160              	bno055_read_gyro_z:
 2161              	.LFB21:
1251:Src/bno055.c  **** /*!
1252:Src/bno055.c  ****  *	@brief This API reads gyro data z values
1253:Src/bno055.c  ****  *	from register 0x18 and 0x19 it is a two byte data
1254:Src/bno055.c  ****  *
1255:Src/bno055.c  ****  *	@param gyro_z_s16 : The z raw data
1256:Src/bno055.c  ****  *
1257:Src/bno055.c  ****  *	@return results of bus communication function
1258:Src/bno055.c  ****  *	@retval 0 -> BNO055_SUCCESS
1259:Src/bno055.c  ****  *	@retval 1 -> BNO055_ERROR
1260:Src/bno055.c  ****  *
1261:Src/bno055.c  ****  *
1262:Src/bno055.c  ****  */
1263:Src/bno055.c  **** BNO055_RETURN_FUNCTION_TYPE bno055_read_gyro_z(s16 *gyro_z_s16)
1264:Src/bno055.c  **** {
 2162              		.loc 1 1264 0
 2163              		.cfi_startproc
 2164              		@ args = 0, pretend = 0, frame = 8
 2165              		@ frame_needed = 0, uses_anonymous_args = 0
 2166              	.LVL228:
 2167 0000 30B5     		push	{r4, r5, lr}
 2168              	.LCFI87:
 2169              		.cfi_def_cfa_offset 12
 2170              		.cfi_offset 4, -12
 2171              		.cfi_offset 5, -8
 2172              		.cfi_offset 14, -4
1265:Src/bno055.c  **** 	/* Variable used to return value of
1266:Src/bno055.c  **** 	communication routine*/
1267:Src/bno055.c  **** 	BNO055_RETURN_FUNCTION_TYPE com_rslt = BNO055_ERROR;
ARM GAS  /tmp/ccVWLGiI.s 			page 64


1268:Src/bno055.c  **** 	u8 data_u8[BNO055_GYRO_DATA_SIZE] = {
1269:Src/bno055.c  **** 	BNO055_INIT_VALUE, BNO055_INIT_VALUE};
1270:Src/bno055.c  **** 	s8 stat_s8 = BNO055_ERROR;
1271:Src/bno055.c  **** 	/* Check the struct p_bno055 is empty */
1272:Src/bno055.c  **** 	if (p_bno055 == BNO055_INIT_VALUE) {
 2173              		.loc 1 1272 0
 2174 0002 144C     		ldr	r4, .L251
1264:Src/bno055.c  **** 	/* Variable used to return value of
 2175              		.loc 1 1264 0
 2176 0004 83B0     		sub	sp, sp, #12
 2177              	.LCFI88:
 2178              		.cfi_def_cfa_offset 24
 2179              		.loc 1 1272 0
 2180 0006 2368     		ldr	r3, [r4]
1268:Src/bno055.c  **** 	BNO055_INIT_VALUE, BNO055_INIT_VALUE};
 2181              		.loc 1 1268 0
 2182 0008 0022     		movs	r2, #0
 2183 000a 8DF80420 		strb	r2, [sp, #4]
 2184 000e 8DF80520 		strb	r2, [sp, #5]
 2185              	.LVL229:
 2186              		.loc 1 1272 0
 2187 0012 EBB1     		cbz	r3, .L244
1273:Src/bno055.c  **** 		return BNO055_E_NULL_PTR;
1274:Src/bno055.c  **** 		} else {
1275:Src/bno055.c  **** 		/*condition check for page, chip id is
1276:Src/bno055.c  **** 		available in the page zero*/
1277:Src/bno055.c  **** 		if (p_bno055->page_id != BNO055_PAGE_ZERO)
 2188              		.loc 1 1277 0
 2189 0014 1979     		ldrb	r1, [r3, #4]	@ zero_extendqisi2
 2190 0016 0546     		mov	r5, r0
 2191 0018 79B9     		cbnz	r1, .L250
 2192              	.LVL230:
 2193              	.L242:
1278:Src/bno055.c  **** 			/* Write the page zero*/
1279:Src/bno055.c  **** 			stat_s8 = bno055_write_page_id(BNO055_PAGE_ZERO);
1280:Src/bno055.c  **** 		if ((stat_s8 == BNO055_SUCCESS) ||
1281:Src/bno055.c  **** 		(p_bno055->page_id == BNO055_PAGE_ZERO)) {
1282:Src/bno055.c  **** 			/* Read the gyro z 16 bit value*/
1283:Src/bno055.c  **** 			com_rslt = p_bno055->BNO055_BUS_READ_FUNC
 2194              		.loc 1 1283 0
 2195 001a 1C69     		ldr	r4, [r3, #16]
 2196 001c 587A     		ldrb	r0, [r3, #9]	@ zero_extendqisi2
 2197 001e 01AA     		add	r2, sp, #4
 2198 0020 0223     		movs	r3, #2
 2199 0022 1821     		movs	r1, #24
 2200 0024 A047     		blx	r4
 2201              	.LVL231:
1284:Src/bno055.c  **** 			(p_bno055->dev_addr,
1285:Src/bno055.c  **** 			BNO055_GYRO_DATA_Z_LSB_VALUEZ_REG,
1286:Src/bno055.c  **** 			data_u8, BNO055_LSB_MSB_READ_LENGTH);
1287:Src/bno055.c  **** 			data_u8[BNO055_SENSOR_DATA_LSB] =
1288:Src/bno055.c  **** 			BNO055_GET_BITSLICE(data_u8[BNO055_SENSOR_DATA_LSB],
1289:Src/bno055.c  **** 			BNO055_GYRO_DATA_Z_LSB_VALUEZ);
1290:Src/bno055.c  **** 			data_u8[BNO055_SENSOR_DATA_MSB] =
1291:Src/bno055.c  **** 			BNO055_GET_BITSLICE(data_u8[BNO055_SENSOR_DATA_MSB],
1292:Src/bno055.c  **** 			BNO055_GYRO_DATA_Z_MSB_VALUEZ);
1293:Src/bno055.c  **** 			*gyro_z_s16 = (s16)((((s32)
ARM GAS  /tmp/ccVWLGiI.s 			page 65


 2202              		.loc 1 1293 0
 2203 0026 9DF90520 		ldrsb	r2, [sp, #5]
 2204 002a 9DF80430 		ldrb	r3, [sp, #4]	@ zero_extendqisi2
 2205 002e 43EA0223 		orr	r3, r3, r2, lsl #8
 2206 0032 2B80     		strh	r3, [r5]	@ movhi
 2207              	.LVL232:
 2208              	.L241:
1294:Src/bno055.c  **** 			((s8)data_u8[BNO055_SENSOR_DATA_MSB])) <<
1295:Src/bno055.c  **** 			BNO055_SHIFT_EIGHT_BITS)
1296:Src/bno055.c  **** 			| (data_u8[BNO055_SENSOR_DATA_LSB]));
1297:Src/bno055.c  **** 		} else {
1298:Src/bno055.c  **** 		com_rslt = BNO055_ERROR;
1299:Src/bno055.c  **** 		}
1300:Src/bno055.c  **** 	}
1301:Src/bno055.c  **** 	return com_rslt;
1302:Src/bno055.c  **** }
 2209              		.loc 1 1302 0
 2210 0034 40B2     		sxtb	r0, r0
 2211 0036 03B0     		add	sp, sp, #12
 2212              	.LCFI89:
 2213              		.cfi_remember_state
 2214              		.cfi_def_cfa_offset 12
 2215              		@ sp needed
 2216 0038 30BD     		pop	{r4, r5, pc}
 2217              	.LVL233:
 2218              	.L250:
 2219              	.LCFI90:
 2220              		.cfi_restore_state
1279:Src/bno055.c  **** 		if ((stat_s8 == BNO055_SUCCESS) ||
 2221              		.loc 1 1279 0
 2222 003a 1046     		mov	r0, r2
 2223              	.LVL234:
 2224 003c FFF7FEFF 		bl	bno055_write_page_id
 2225              	.LVL235:
 2226 0040 2368     		ldr	r3, [r4]
1280:Src/bno055.c  **** 		(p_bno055->page_id == BNO055_PAGE_ZERO)) {
 2227              		.loc 1 1280 0
 2228 0042 0028     		cmp	r0, #0
 2229 0044 E9D0     		beq	.L242
 2230              	.LVL236:
1280:Src/bno055.c  **** 		(p_bno055->page_id == BNO055_PAGE_ZERO)) {
 2231              		.loc 1 1280 0 is_stmt 0 discriminator 1
 2232 0046 1A79     		ldrb	r2, [r3, #4]	@ zero_extendqisi2
1298:Src/bno055.c  **** 		}
 2233              		.loc 1 1298 0 is_stmt 1 discriminator 1
 2234 0048 FF20     		movs	r0, #255
1280:Src/bno055.c  **** 		(p_bno055->page_id == BNO055_PAGE_ZERO)) {
 2235              		.loc 1 1280 0 discriminator 1
 2236 004a 002A     		cmp	r2, #0
 2237 004c F2D1     		bne	.L241
 2238 004e E4E7     		b	.L242
 2239              	.LVL237:
 2240              	.L244:
1273:Src/bno055.c  **** 		} else {
 2241              		.loc 1 1273 0
 2242 0050 8120     		movs	r0, #129
 2243              	.LVL238:
ARM GAS  /tmp/ccVWLGiI.s 			page 66


 2244 0052 EFE7     		b	.L241
 2245              	.L252:
 2246              		.align	2
 2247              	.L251:
 2248 0054 00000000 		.word	.LANCHOR0
 2249              		.cfi_endproc
 2250              	.LFE21:
 2252              		.section	.text.bno055_read_gyro_xyz,"ax",%progbits
 2253              		.align	2
 2254              		.global	bno055_read_gyro_xyz
 2255              		.thumb
 2256              		.thumb_func
 2258              	bno055_read_gyro_xyz:
 2259              	.LFB22:
1303:Src/bno055.c  **** /*!
1304:Src/bno055.c  ****  *	@brief This API reads gyro data xyz values
1305:Src/bno055.c  ****  *	from register 0x14 to 0x19 it is a six byte data
1306:Src/bno055.c  ****  *
1307:Src/bno055.c  ****  *
1308:Src/bno055.c  ****  *	@param gyro : The value of gyro xyz data's
1309:Src/bno055.c  ****  *
1310:Src/bno055.c  ****  *	Parameter |    result
1311:Src/bno055.c  ****  *  --------- | -----------------
1312:Src/bno055.c  ****  *	 x        | The gyro x data
1313:Src/bno055.c  ****  *	 y        | The gyro y data
1314:Src/bno055.c  ****  *	 z        | The gyro z data
1315:Src/bno055.c  ****  *
1316:Src/bno055.c  ****  *
1317:Src/bno055.c  ****  *
1318:Src/bno055.c  ****  *	@return results of bus communication function
1319:Src/bno055.c  ****  *	@retval 0 -> BNO055_SUCCESS
1320:Src/bno055.c  ****  *	@retval 1 -> BNO055_ERROR
1321:Src/bno055.c  ****  *
1322:Src/bno055.c  ****  */
1323:Src/bno055.c  **** BNO055_RETURN_FUNCTION_TYPE bno055_read_gyro_xyz(struct bno055_gyro_t *gyro)
1324:Src/bno055.c  **** {
 2260              		.loc 1 1324 0
 2261              		.cfi_startproc
 2262              		@ args = 0, pretend = 0, frame = 8
 2263              		@ frame_needed = 0, uses_anonymous_args = 0
 2264              	.LVL239:
 2265 0000 F0B5     		push	{r4, r5, r6, r7, lr}
 2266              	.LCFI91:
 2267              		.cfi_def_cfa_offset 20
 2268              		.cfi_offset 4, -20
 2269              		.cfi_offset 5, -16
 2270              		.cfi_offset 6, -12
 2271              		.cfi_offset 7, -8
 2272              		.cfi_offset 14, -4
1325:Src/bno055.c  **** 	/* Variable used to return value of
1326:Src/bno055.c  **** 	communication routine*/
1327:Src/bno055.c  **** 	BNO055_RETURN_FUNCTION_TYPE com_rslt = BNO055_ERROR;
1328:Src/bno055.c  **** 	/* Array holding the gyro xyz value
1329:Src/bno055.c  **** 	data_u8[BNO055_SENSOR_DATA_XYZ_X_LSB] - x->LSB
1330:Src/bno055.c  **** 	data_u8[BNO055_SENSOR_DATA_XYZ_X_MSB] - x->MSB
1331:Src/bno055.c  **** 	data_u8[BNO055_SENSOR_DATA_XYZ_Y_LSB] - y->MSB
1332:Src/bno055.c  **** 	data_u8[BNO055_SENSOR_DATA_XYZ_Y_MSB] - y->MSB
ARM GAS  /tmp/ccVWLGiI.s 			page 67


1333:Src/bno055.c  **** 	data_u8[BNO055_SENSOR_DATA_XYZ_Z_LSB] - z->MSB
1334:Src/bno055.c  **** 	data_u8[BNO055_SENSOR_DATA_XYZ_Z_MSB] - z->MSB
1335:Src/bno055.c  **** 	*/
1336:Src/bno055.c  **** 	u8 data_u8[BNO055_GYRO_XYZ_DATA_SIZE] = {
1337:Src/bno055.c  **** 	BNO055_INIT_VALUE, BNO055_INIT_VALUE,
1338:Src/bno055.c  **** 	BNO055_INIT_VALUE, BNO055_INIT_VALUE,
1339:Src/bno055.c  **** 	BNO055_INIT_VALUE, BNO055_INIT_VALUE};
1340:Src/bno055.c  **** 	s8 stat_s8 = BNO055_ERROR;
1341:Src/bno055.c  **** 	/* Check the struct p_bno055 is empty */
1342:Src/bno055.c  **** 	if (p_bno055 == BNO055_INIT_VALUE) {
 2273              		.loc 1 1342 0
 2274 0002 1F4D     		ldr	r5, .L264
1324:Src/bno055.c  **** 	/* Variable used to return value of
 2275              		.loc 1 1324 0
 2276 0004 83B0     		sub	sp, sp, #12
 2277              	.LCFI92:
 2278              		.cfi_def_cfa_offset 32
 2279              		.loc 1 1342 0
 2280 0006 2A68     		ldr	r2, [r5]
1336:Src/bno055.c  **** 	BNO055_INIT_VALUE, BNO055_INIT_VALUE,
 2281              		.loc 1 1336 0
 2282 0008 0023     		movs	r3, #0
 2283 000a 8DF80030 		strb	r3, [sp]
 2284 000e 8DF80130 		strb	r3, [sp, #1]
 2285 0012 8DF80230 		strb	r3, [sp, #2]
 2286 0016 8DF80330 		strb	r3, [sp, #3]
 2287 001a 8DF80430 		strb	r3, [sp, #4]
 2288 001e 8DF80530 		strb	r3, [sp, #5]
 2289              	.LVL240:
 2290              		.loc 1 1342 0
 2291 0022 5AB3     		cbz	r2, .L257
1343:Src/bno055.c  **** 		return BNO055_E_NULL_PTR;
1344:Src/bno055.c  **** 		} else {
1345:Src/bno055.c  **** 		/*condition check for page, chip id is
1346:Src/bno055.c  **** 		available in the page zero*/
1347:Src/bno055.c  **** 		if (p_bno055->page_id != BNO055_PAGE_ZERO)
 2292              		.loc 1 1347 0
 2293 0024 1179     		ldrb	r1, [r2, #4]	@ zero_extendqisi2
 2294 0026 0446     		mov	r4, r0
 2295 0028 E9B9     		cbnz	r1, .L263
 2296              	.LVL241:
 2297              	.L255:
1348:Src/bno055.c  **** 			/* Write the page zero*/
1349:Src/bno055.c  **** 			stat_s8 = bno055_write_page_id(BNO055_PAGE_ZERO);
1350:Src/bno055.c  **** 		if ((stat_s8 == BNO055_SUCCESS) ||
1351:Src/bno055.c  **** 		(p_bno055->page_id == BNO055_PAGE_ZERO)) {
1352:Src/bno055.c  **** 			/* Read the six bytes data of gyro xyz*/
1353:Src/bno055.c  **** 			com_rslt = p_bno055->BNO055_BUS_READ_FUNC
 2298              		.loc 1 1353 0
 2299 002a 1569     		ldr	r5, [r2, #16]
 2300 002c 507A     		ldrb	r0, [r2, #9]	@ zero_extendqisi2
 2301 002e 1421     		movs	r1, #20
 2302 0030 6A46     		mov	r2, sp
 2303 0032 0623     		movs	r3, #6
 2304 0034 A847     		blx	r5
 2305              	.LVL242:
1354:Src/bno055.c  **** 			(p_bno055->dev_addr,
ARM GAS  /tmp/ccVWLGiI.s 			page 68


1355:Src/bno055.c  **** 			BNO055_GYRO_DATA_X_LSB_VALUEX_REG,
1356:Src/bno055.c  **** 			data_u8, BNO055_GYRO_XYZ_DATA_SIZE);
1357:Src/bno055.c  **** 			/* Data x*/
1358:Src/bno055.c  **** 			data_u8[BNO055_SENSOR_DATA_XYZ_X_LSB] =
1359:Src/bno055.c  **** 			BNO055_GET_BITSLICE(
1360:Src/bno055.c  **** 			data_u8[BNO055_SENSOR_DATA_XYZ_X_LSB],
1361:Src/bno055.c  **** 			BNO055_GYRO_DATA_X_LSB_VALUEX);
1362:Src/bno055.c  **** 			data_u8[BNO055_SENSOR_DATA_XYZ_X_MSB] =
1363:Src/bno055.c  **** 			BNO055_GET_BITSLICE(
1364:Src/bno055.c  **** 			data_u8[BNO055_SENSOR_DATA_XYZ_X_MSB],
1365:Src/bno055.c  **** 			BNO055_GYRO_DATA_X_MSB_VALUEX);
1366:Src/bno055.c  **** 			gyro->x = (s16)((((s32)
 2306              		.loc 1 1366 0
 2307 0036 9DF90170 		ldrsb	r7, [sp, #1]
 2308 003a 9DF80010 		ldrb	r1, [sp]	@ zero_extendqisi2
1367:Src/bno055.c  **** 			((s8)data_u8[BNO055_SENSOR_DATA_XYZ_X_MSB])) <<
1368:Src/bno055.c  **** 			BNO055_SHIFT_EIGHT_BITS) |
1369:Src/bno055.c  **** 			(data_u8[BNO055_SENSOR_DATA_XYZ_X_LSB]));
1370:Src/bno055.c  **** 			/* Data y*/
1371:Src/bno055.c  **** 			data_u8[BNO055_SENSOR_DATA_XYZ_Y_LSB] =
1372:Src/bno055.c  **** 			BNO055_GET_BITSLICE(
1373:Src/bno055.c  **** 				data_u8[BNO055_SENSOR_DATA_XYZ_Y_LSB],
1374:Src/bno055.c  **** 			BNO055_GYRO_DATA_Y_LSB_VALUEY);
1375:Src/bno055.c  **** 			data_u8[BNO055_SENSOR_DATA_XYZ_Y_MSB] =
1376:Src/bno055.c  **** 			BNO055_GET_BITSLICE(
1377:Src/bno055.c  **** 				data_u8[BNO055_SENSOR_DATA_XYZ_Y_MSB],
1378:Src/bno055.c  **** 			BNO055_GYRO_DATA_Y_MSB_VALUEY);
1379:Src/bno055.c  **** 			gyro->y = (s16)((((s32)
 2309              		.loc 1 1379 0
 2310 003e 9DF90360 		ldrsb	r6, [sp, #3]
 2311 0042 9DF80220 		ldrb	r2, [sp, #2]	@ zero_extendqisi2
1380:Src/bno055.c  **** 			((s8)data_u8[BNO055_SENSOR_DATA_XYZ_Y_MSB])) <<
1381:Src/bno055.c  **** 			BNO055_SHIFT_EIGHT_BITS)
1382:Src/bno055.c  **** 			| (data_u8[BNO055_SENSOR_DATA_XYZ_Y_LSB]));
1383:Src/bno055.c  **** 			/* Data z*/
1384:Src/bno055.c  **** 			data_u8[BNO055_SENSOR_DATA_XYZ_Z_LSB] =
1385:Src/bno055.c  **** 			BNO055_GET_BITSLICE(
1386:Src/bno055.c  **** 				data_u8[BNO055_SENSOR_DATA_XYZ_Z_LSB],
1387:Src/bno055.c  **** 			BNO055_GYRO_DATA_Z_LSB_VALUEZ);
1388:Src/bno055.c  **** 			data_u8[BNO055_SENSOR_DATA_XYZ_Z_MSB] =
1389:Src/bno055.c  **** 			BNO055_GET_BITSLICE(
1390:Src/bno055.c  **** 				data_u8[BNO055_SENSOR_DATA_XYZ_Z_MSB],
1391:Src/bno055.c  **** 			BNO055_GYRO_DATA_Z_MSB_VALUEZ);
1392:Src/bno055.c  **** 			gyro->z = (s16)((((s32)
 2312              		.loc 1 1392 0
 2313 0046 9DF90550 		ldrsb	r5, [sp, #5]
 2314 004a 9DF80430 		ldrb	r3, [sp, #4]	@ zero_extendqisi2
1366:Src/bno055.c  **** 			((s8)data_u8[BNO055_SENSOR_DATA_XYZ_X_MSB])) <<
 2315              		.loc 1 1366 0
 2316 004e 41EA0721 		orr	r1, r1, r7, lsl #8
1379:Src/bno055.c  **** 			((s8)data_u8[BNO055_SENSOR_DATA_XYZ_Y_MSB])) <<
 2317              		.loc 1 1379 0
 2318 0052 42EA0622 		orr	r2, r2, r6, lsl #8
 2319              		.loc 1 1392 0
 2320 0056 43EA0523 		orr	r3, r3, r5, lsl #8
1366:Src/bno055.c  **** 			((s8)data_u8[BNO055_SENSOR_DATA_XYZ_X_MSB])) <<
 2321              		.loc 1 1366 0
ARM GAS  /tmp/ccVWLGiI.s 			page 69


 2322 005a 2180     		strh	r1, [r4]	@ movhi
1379:Src/bno055.c  **** 			((s8)data_u8[BNO055_SENSOR_DATA_XYZ_Y_MSB])) <<
 2323              		.loc 1 1379 0
 2324 005c 6280     		strh	r2, [r4, #2]	@ movhi
 2325              		.loc 1 1392 0
 2326 005e A380     		strh	r3, [r4, #4]	@ movhi
 2327              	.LVL243:
 2328              	.L254:
1393:Src/bno055.c  **** 			((s8)data_u8[BNO055_SENSOR_DATA_XYZ_Z_MSB])) <<
1394:Src/bno055.c  **** 			BNO055_SHIFT_EIGHT_BITS)
1395:Src/bno055.c  **** 			| (data_u8[BNO055_SENSOR_DATA_XYZ_Z_LSB]));
1396:Src/bno055.c  **** 		} else {
1397:Src/bno055.c  **** 		com_rslt = BNO055_ERROR;
1398:Src/bno055.c  **** 		}
1399:Src/bno055.c  **** 	}
1400:Src/bno055.c  **** 	return com_rslt;
1401:Src/bno055.c  **** }
 2329              		.loc 1 1401 0
 2330 0060 40B2     		sxtb	r0, r0
 2331 0062 03B0     		add	sp, sp, #12
 2332              	.LCFI93:
 2333              		.cfi_remember_state
 2334              		.cfi_def_cfa_offset 20
 2335              		@ sp needed
 2336 0064 F0BD     		pop	{r4, r5, r6, r7, pc}
 2337              	.LVL244:
 2338              	.L263:
 2339              	.LCFI94:
 2340              		.cfi_restore_state
1349:Src/bno055.c  **** 		if ((stat_s8 == BNO055_SUCCESS) ||
 2341              		.loc 1 1349 0
 2342 0066 1846     		mov	r0, r3
 2343              	.LVL245:
 2344 0068 FFF7FEFF 		bl	bno055_write_page_id
 2345              	.LVL246:
 2346 006c 2A68     		ldr	r2, [r5]
1350:Src/bno055.c  **** 		(p_bno055->page_id == BNO055_PAGE_ZERO)) {
 2347              		.loc 1 1350 0
 2348 006e 0028     		cmp	r0, #0
 2349 0070 DBD0     		beq	.L255
 2350              	.LVL247:
1350:Src/bno055.c  **** 		(p_bno055->page_id == BNO055_PAGE_ZERO)) {
 2351              		.loc 1 1350 0 is_stmt 0 discriminator 1
 2352 0072 1379     		ldrb	r3, [r2, #4]	@ zero_extendqisi2
1397:Src/bno055.c  **** 		}
 2353              		.loc 1 1397 0 is_stmt 1 discriminator 1
 2354 0074 FF20     		movs	r0, #255
1350:Src/bno055.c  **** 		(p_bno055->page_id == BNO055_PAGE_ZERO)) {
 2355              		.loc 1 1350 0 discriminator 1
 2356 0076 002B     		cmp	r3, #0
 2357 0078 F2D1     		bne	.L254
 2358 007a D6E7     		b	.L255
 2359              	.LVL248:
 2360              	.L257:
1343:Src/bno055.c  **** 		} else {
 2361              		.loc 1 1343 0
 2362 007c 8120     		movs	r0, #129
ARM GAS  /tmp/ccVWLGiI.s 			page 70


 2363              	.LVL249:
 2364 007e EFE7     		b	.L254
 2365              	.L265:
 2366              		.align	2
 2367              	.L264:
 2368 0080 00000000 		.word	.LANCHOR0
 2369              		.cfi_endproc
 2370              	.LFE22:
 2372              		.section	.text.bno055_read_euler_h,"ax",%progbits
 2373              		.align	2
 2374              		.global	bno055_read_euler_h
 2375              		.thumb
 2376              		.thumb_func
 2378              	bno055_read_euler_h:
 2379              	.LFB23:
1402:Src/bno055.c  **** /*!
1403:Src/bno055.c  ****  *	@brief This API reads gyro data z values
1404:Src/bno055.c  ****  *	from register 0x1A and 0x1B it is a two byte data
1405:Src/bno055.c  ****  *
1406:Src/bno055.c  ****  *	@param euler_h_s16 : The raw h data
1407:Src/bno055.c  ****  *
1408:Src/bno055.c  ****  *	@return results of bus communication function
1409:Src/bno055.c  ****  *	@retval 0 -> BNO055_SUCCESS
1410:Src/bno055.c  ****  *	@retval 1 -> BNO055_ERROR
1411:Src/bno055.c  ****  *
1412:Src/bno055.c  ****  */
1413:Src/bno055.c  **** BNO055_RETURN_FUNCTION_TYPE bno055_read_euler_h(s16 *euler_h_s16)
1414:Src/bno055.c  **** {
 2380              		.loc 1 1414 0
 2381              		.cfi_startproc
 2382              		@ args = 0, pretend = 0, frame = 8
 2383              		@ frame_needed = 0, uses_anonymous_args = 0
 2384              	.LVL250:
 2385 0000 30B5     		push	{r4, r5, lr}
 2386              	.LCFI95:
 2387              		.cfi_def_cfa_offset 12
 2388              		.cfi_offset 4, -12
 2389              		.cfi_offset 5, -8
 2390              		.cfi_offset 14, -4
1415:Src/bno055.c  **** 	/* Variable used to return value of
1416:Src/bno055.c  **** 	communication routine*/
1417:Src/bno055.c  **** 	BNO055_RETURN_FUNCTION_TYPE com_rslt = BNO055_ERROR;
1418:Src/bno055.c  **** 	/* Array holding the Euler h value
1419:Src/bno055.c  **** 	data_u8[BNO055_SENSOR_DATA_EULER_LSB] - h->LSB
1420:Src/bno055.c  **** 	data_u8[BNO055_SENSOR_DATA_EULER_MSB] - h->MSB
1421:Src/bno055.c  **** 	*/
1422:Src/bno055.c  **** 	u8 data_u8[BNO055_EULER_DATA_SIZE] = {
1423:Src/bno055.c  **** 	BNO055_INIT_VALUE, BNO055_INIT_VALUE};
1424:Src/bno055.c  **** 	s8 stat_s8 = BNO055_ERROR;
1425:Src/bno055.c  **** 	/* Check the struct p_bno055 is empty */
1426:Src/bno055.c  **** 	if (p_bno055 == BNO055_INIT_VALUE) {
 2391              		.loc 1 1426 0
 2392 0002 144C     		ldr	r4, .L277
1414:Src/bno055.c  **** 	/* Variable used to return value of
 2393              		.loc 1 1414 0
 2394 0004 83B0     		sub	sp, sp, #12
 2395              	.LCFI96:
ARM GAS  /tmp/ccVWLGiI.s 			page 71


 2396              		.cfi_def_cfa_offset 24
 2397              		.loc 1 1426 0
 2398 0006 2368     		ldr	r3, [r4]
1422:Src/bno055.c  **** 	BNO055_INIT_VALUE, BNO055_INIT_VALUE};
 2399              		.loc 1 1422 0
 2400 0008 0022     		movs	r2, #0
 2401 000a 8DF80420 		strb	r2, [sp, #4]
 2402 000e 8DF80520 		strb	r2, [sp, #5]
 2403              	.LVL251:
 2404              		.loc 1 1426 0
 2405 0012 EBB1     		cbz	r3, .L270
1427:Src/bno055.c  **** 		return BNO055_E_NULL_PTR;
1428:Src/bno055.c  **** 		} else {
1429:Src/bno055.c  **** 		/*condition check for page, chip id is
1430:Src/bno055.c  **** 		available in the page zero*/
1431:Src/bno055.c  **** 		if (p_bno055->page_id != BNO055_PAGE_ZERO)
 2406              		.loc 1 1431 0
 2407 0014 1979     		ldrb	r1, [r3, #4]	@ zero_extendqisi2
 2408 0016 0546     		mov	r5, r0
 2409 0018 79B9     		cbnz	r1, .L276
 2410              	.LVL252:
 2411              	.L268:
1432:Src/bno055.c  **** 			/* Write the page zero*/
1433:Src/bno055.c  **** 			stat_s8 = bno055_write_page_id(BNO055_PAGE_ZERO);
1434:Src/bno055.c  **** 		if ((stat_s8 == BNO055_SUCCESS) ||
1435:Src/bno055.c  **** 		(p_bno055->page_id == BNO055_PAGE_ZERO)) {
1436:Src/bno055.c  **** 			/* Read the eulre heading data*/
1437:Src/bno055.c  **** 			com_rslt = p_bno055->BNO055_BUS_READ_FUNC
 2412              		.loc 1 1437 0
 2413 001a 1C69     		ldr	r4, [r3, #16]
 2414 001c 587A     		ldrb	r0, [r3, #9]	@ zero_extendqisi2
 2415 001e 01AA     		add	r2, sp, #4
 2416 0020 0223     		movs	r3, #2
 2417 0022 1A21     		movs	r1, #26
 2418 0024 A047     		blx	r4
 2419              	.LVL253:
1438:Src/bno055.c  **** 			(p_bno055->dev_addr,
1439:Src/bno055.c  **** 			BNO055_EULER_H_LSB_VALUEH_REG,
1440:Src/bno055.c  **** 			data_u8, BNO055_LSB_MSB_READ_LENGTH);
1441:Src/bno055.c  **** 			data_u8[BNO055_SENSOR_DATA_EULER_LSB] =
1442:Src/bno055.c  **** 			BNO055_GET_BITSLICE(
1443:Src/bno055.c  **** 			data_u8[BNO055_SENSOR_DATA_EULER_LSB],
1444:Src/bno055.c  **** 			BNO055_EULER_H_LSB_VALUEH);
1445:Src/bno055.c  **** 			data_u8[BNO055_SENSOR_DATA_EULER_MSB] =
1446:Src/bno055.c  **** 			BNO055_GET_BITSLICE(
1447:Src/bno055.c  **** 			data_u8[BNO055_SENSOR_DATA_EULER_MSB],
1448:Src/bno055.c  **** 			BNO055_EULER_H_MSB_VALUEH);
1449:Src/bno055.c  **** 			*euler_h_s16 = (s16)((((s32)
 2420              		.loc 1 1449 0
 2421 0026 9DF90520 		ldrsb	r2, [sp, #5]
 2422 002a 9DF80430 		ldrb	r3, [sp, #4]	@ zero_extendqisi2
 2423 002e 43EA0223 		orr	r3, r3, r2, lsl #8
 2424 0032 2B80     		strh	r3, [r5]	@ movhi
 2425              	.LVL254:
 2426              	.L267:
1450:Src/bno055.c  **** 			((s8)data_u8[BNO055_SENSOR_DATA_EULER_MSB])) <<
1451:Src/bno055.c  **** 			BNO055_SHIFT_EIGHT_BITS) |
ARM GAS  /tmp/ccVWLGiI.s 			page 72


1452:Src/bno055.c  **** 			(data_u8[BNO055_SENSOR_DATA_EULER_LSB]));
1453:Src/bno055.c  **** 		} else {
1454:Src/bno055.c  **** 		com_rslt = BNO055_ERROR;
1455:Src/bno055.c  **** 		}
1456:Src/bno055.c  **** 	}
1457:Src/bno055.c  **** 	return com_rslt;
1458:Src/bno055.c  **** }
 2427              		.loc 1 1458 0
 2428 0034 40B2     		sxtb	r0, r0
 2429 0036 03B0     		add	sp, sp, #12
 2430              	.LCFI97:
 2431              		.cfi_remember_state
 2432              		.cfi_def_cfa_offset 12
 2433              		@ sp needed
 2434 0038 30BD     		pop	{r4, r5, pc}
 2435              	.LVL255:
 2436              	.L276:
 2437              	.LCFI98:
 2438              		.cfi_restore_state
1433:Src/bno055.c  **** 		if ((stat_s8 == BNO055_SUCCESS) ||
 2439              		.loc 1 1433 0
 2440 003a 1046     		mov	r0, r2
 2441              	.LVL256:
 2442 003c FFF7FEFF 		bl	bno055_write_page_id
 2443              	.LVL257:
 2444 0040 2368     		ldr	r3, [r4]
1434:Src/bno055.c  **** 		(p_bno055->page_id == BNO055_PAGE_ZERO)) {
 2445              		.loc 1 1434 0
 2446 0042 0028     		cmp	r0, #0
 2447 0044 E9D0     		beq	.L268
 2448              	.LVL258:
1434:Src/bno055.c  **** 		(p_bno055->page_id == BNO055_PAGE_ZERO)) {
 2449              		.loc 1 1434 0 is_stmt 0 discriminator 1
 2450 0046 1A79     		ldrb	r2, [r3, #4]	@ zero_extendqisi2
1454:Src/bno055.c  **** 		}
 2451              		.loc 1 1454 0 is_stmt 1 discriminator 1
 2452 0048 FF20     		movs	r0, #255
1434:Src/bno055.c  **** 		(p_bno055->page_id == BNO055_PAGE_ZERO)) {
 2453              		.loc 1 1434 0 discriminator 1
 2454 004a 002A     		cmp	r2, #0
 2455 004c F2D1     		bne	.L267
 2456 004e E4E7     		b	.L268
 2457              	.LVL259:
 2458              	.L270:
1427:Src/bno055.c  **** 		} else {
 2459              		.loc 1 1427 0
 2460 0050 8120     		movs	r0, #129
 2461              	.LVL260:
 2462 0052 EFE7     		b	.L267
 2463              	.L278:
 2464              		.align	2
 2465              	.L277:
 2466 0054 00000000 		.word	.LANCHOR0
 2467              		.cfi_endproc
 2468              	.LFE23:
 2470              		.section	.text.bno055_read_euler_r,"ax",%progbits
 2471              		.align	2
ARM GAS  /tmp/ccVWLGiI.s 			page 73


 2472              		.global	bno055_read_euler_r
 2473              		.thumb
 2474              		.thumb_func
 2476              	bno055_read_euler_r:
 2477              	.LFB24:
1459:Src/bno055.c  **** /*!
1460:Src/bno055.c  ****  *	@brief This API reads Euler data r values
1461:Src/bno055.c  ****  *	from register 0x1C and 0x1D it is a two byte data
1462:Src/bno055.c  ****  *
1463:Src/bno055.c  ****  *	@param euler_r_s16 : The raw r data
1464:Src/bno055.c  ****  *
1465:Src/bno055.c  ****  *	@return results of bus communication function
1466:Src/bno055.c  ****  *	@retval 0 -> BNO055_SUCCESS
1467:Src/bno055.c  ****  *	@retval 1 -> BNO055_ERROR
1468:Src/bno055.c  ****  *
1469:Src/bno055.c  ****  */
1470:Src/bno055.c  **** BNO055_RETURN_FUNCTION_TYPE bno055_read_euler_r(s16 *euler_r_s16)
1471:Src/bno055.c  **** {
 2478              		.loc 1 1471 0
 2479              		.cfi_startproc
 2480              		@ args = 0, pretend = 0, frame = 8
 2481              		@ frame_needed = 0, uses_anonymous_args = 0
 2482              	.LVL261:
 2483 0000 30B5     		push	{r4, r5, lr}
 2484              	.LCFI99:
 2485              		.cfi_def_cfa_offset 12
 2486              		.cfi_offset 4, -12
 2487              		.cfi_offset 5, -8
 2488              		.cfi_offset 14, -4
1472:Src/bno055.c  **** 	/* Variable used to return value of
1473:Src/bno055.c  **** 	communication routine*/
1474:Src/bno055.c  **** 	BNO055_RETURN_FUNCTION_TYPE com_rslt = BNO055_ERROR;
1475:Src/bno055.c  **** 	/* Array holding the Euler r value
1476:Src/bno055.c  **** 	data_u8[BNO055_SENSOR_DATA_EULER_LSB] - r->LSB
1477:Src/bno055.c  **** 	data_u8[BNO055_SENSOR_DATA_EULER_MSB] - r->MSB
1478:Src/bno055.c  **** 	*/
1479:Src/bno055.c  **** 	u8 data_u8[BNO055_EULER_DATA_SIZE] = {
1480:Src/bno055.c  **** 	BNO055_INIT_VALUE, BNO055_INIT_VALUE};
1481:Src/bno055.c  **** 	s8 stat_s8 = BNO055_ERROR;
1482:Src/bno055.c  **** 	/* Check the struct p_bno055 is empty */
1483:Src/bno055.c  **** 	if (p_bno055 == BNO055_INIT_VALUE) {
 2489              		.loc 1 1483 0
 2490 0002 144C     		ldr	r4, .L290
1471:Src/bno055.c  **** 	/* Variable used to return value of
 2491              		.loc 1 1471 0
 2492 0004 83B0     		sub	sp, sp, #12
 2493              	.LCFI100:
 2494              		.cfi_def_cfa_offset 24
 2495              		.loc 1 1483 0
 2496 0006 2368     		ldr	r3, [r4]
1479:Src/bno055.c  **** 	BNO055_INIT_VALUE, BNO055_INIT_VALUE};
 2497              		.loc 1 1479 0
 2498 0008 0022     		movs	r2, #0
 2499 000a 8DF80420 		strb	r2, [sp, #4]
 2500 000e 8DF80520 		strb	r2, [sp, #5]
 2501              	.LVL262:
 2502              		.loc 1 1483 0
ARM GAS  /tmp/ccVWLGiI.s 			page 74


 2503 0012 EBB1     		cbz	r3, .L283
1484:Src/bno055.c  **** 		return BNO055_E_NULL_PTR;
1485:Src/bno055.c  **** 		} else {
1486:Src/bno055.c  **** 		/*condition check for page, chip id is
1487:Src/bno055.c  **** 		available in the page zero*/
1488:Src/bno055.c  **** 		if (p_bno055->page_id != BNO055_PAGE_ZERO)
 2504              		.loc 1 1488 0
 2505 0014 1979     		ldrb	r1, [r3, #4]	@ zero_extendqisi2
 2506 0016 0546     		mov	r5, r0
 2507 0018 79B9     		cbnz	r1, .L289
 2508              	.LVL263:
 2509              	.L281:
1489:Src/bno055.c  **** 			/* Write the page zero*/
1490:Src/bno055.c  **** 			stat_s8 = bno055_write_page_id(BNO055_PAGE_ZERO);
1491:Src/bno055.c  **** 		if ((stat_s8 == BNO055_SUCCESS) ||
1492:Src/bno055.c  **** 		(p_bno055->page_id == BNO055_PAGE_ZERO)) {
1493:Src/bno055.c  **** 			/* Read the Euler roll data*/
1494:Src/bno055.c  **** 			com_rslt = p_bno055->BNO055_BUS_READ_FUNC
 2510              		.loc 1 1494 0
 2511 001a 1C69     		ldr	r4, [r3, #16]
 2512 001c 587A     		ldrb	r0, [r3, #9]	@ zero_extendqisi2
 2513 001e 01AA     		add	r2, sp, #4
 2514 0020 0223     		movs	r3, #2
 2515 0022 1C21     		movs	r1, #28
 2516 0024 A047     		blx	r4
 2517              	.LVL264:
1495:Src/bno055.c  **** 			(p_bno055->dev_addr,
1496:Src/bno055.c  **** 			BNO055_EULER_R_LSB_VALUER_REG,
1497:Src/bno055.c  **** 			data_u8, BNO055_LSB_MSB_READ_LENGTH);
1498:Src/bno055.c  **** 			data_u8[BNO055_SENSOR_DATA_EULER_LSB] =
1499:Src/bno055.c  **** 			BNO055_GET_BITSLICE(
1500:Src/bno055.c  **** 			data_u8[BNO055_SENSOR_DATA_EULER_LSB],
1501:Src/bno055.c  **** 			BNO055_EULER_R_LSB_VALUER);
1502:Src/bno055.c  **** 			data_u8[BNO055_SENSOR_DATA_EULER_MSB] =
1503:Src/bno055.c  **** 			BNO055_GET_BITSLICE(
1504:Src/bno055.c  **** 			data_u8[BNO055_SENSOR_DATA_EULER_MSB],
1505:Src/bno055.c  **** 			BNO055_EULER_R_MSB_VALUER);
1506:Src/bno055.c  **** 			*euler_r_s16 = (s16)((((s32)
 2518              		.loc 1 1506 0
 2519 0026 9DF90520 		ldrsb	r2, [sp, #5]
 2520 002a 9DF80430 		ldrb	r3, [sp, #4]	@ zero_extendqisi2
 2521 002e 43EA0223 		orr	r3, r3, r2, lsl #8
 2522 0032 2B80     		strh	r3, [r5]	@ movhi
 2523              	.LVL265:
 2524              	.L280:
1507:Src/bno055.c  **** 			((s8)data_u8[BNO055_SENSOR_DATA_EULER_MSB])) <<
1508:Src/bno055.c  **** 			BNO055_SHIFT_EIGHT_BITS)
1509:Src/bno055.c  **** 			| (data_u8[BNO055_SENSOR_DATA_EULER_LSB]));
1510:Src/bno055.c  **** 		} else {
1511:Src/bno055.c  **** 		com_rslt = BNO055_ERROR;
1512:Src/bno055.c  **** 		}
1513:Src/bno055.c  **** 	}
1514:Src/bno055.c  **** 	return com_rslt;
1515:Src/bno055.c  **** }
 2525              		.loc 1 1515 0
 2526 0034 40B2     		sxtb	r0, r0
 2527 0036 03B0     		add	sp, sp, #12
ARM GAS  /tmp/ccVWLGiI.s 			page 75


 2528              	.LCFI101:
 2529              		.cfi_remember_state
 2530              		.cfi_def_cfa_offset 12
 2531              		@ sp needed
 2532 0038 30BD     		pop	{r4, r5, pc}
 2533              	.LVL266:
 2534              	.L289:
 2535              	.LCFI102:
 2536              		.cfi_restore_state
1490:Src/bno055.c  **** 		if ((stat_s8 == BNO055_SUCCESS) ||
 2537              		.loc 1 1490 0
 2538 003a 1046     		mov	r0, r2
 2539              	.LVL267:
 2540 003c FFF7FEFF 		bl	bno055_write_page_id
 2541              	.LVL268:
 2542 0040 2368     		ldr	r3, [r4]
1491:Src/bno055.c  **** 		(p_bno055->page_id == BNO055_PAGE_ZERO)) {
 2543              		.loc 1 1491 0
 2544 0042 0028     		cmp	r0, #0
 2545 0044 E9D0     		beq	.L281
 2546              	.LVL269:
1491:Src/bno055.c  **** 		(p_bno055->page_id == BNO055_PAGE_ZERO)) {
 2547              		.loc 1 1491 0 is_stmt 0 discriminator 1
 2548 0046 1A79     		ldrb	r2, [r3, #4]	@ zero_extendqisi2
1511:Src/bno055.c  **** 		}
 2549              		.loc 1 1511 0 is_stmt 1 discriminator 1
 2550 0048 FF20     		movs	r0, #255
1491:Src/bno055.c  **** 		(p_bno055->page_id == BNO055_PAGE_ZERO)) {
 2551              		.loc 1 1491 0 discriminator 1
 2552 004a 002A     		cmp	r2, #0
 2553 004c F2D1     		bne	.L280
 2554 004e E4E7     		b	.L281
 2555              	.LVL270:
 2556              	.L283:
1484:Src/bno055.c  **** 		} else {
 2557              		.loc 1 1484 0
 2558 0050 8120     		movs	r0, #129
 2559              	.LVL271:
 2560 0052 EFE7     		b	.L280
 2561              	.L291:
 2562              		.align	2
 2563              	.L290:
 2564 0054 00000000 		.word	.LANCHOR0
 2565              		.cfi_endproc
 2566              	.LFE24:
 2568              		.section	.text.bno055_read_euler_p,"ax",%progbits
 2569              		.align	2
 2570              		.global	bno055_read_euler_p
 2571              		.thumb
 2572              		.thumb_func
 2574              	bno055_read_euler_p:
 2575              	.LFB25:
1516:Src/bno055.c  **** /*!
1517:Src/bno055.c  ****  *	@brief This API reads Euler data p values
1518:Src/bno055.c  ****  *	from register 0x1E and 0x1F it is a two byte data
1519:Src/bno055.c  ****  *
1520:Src/bno055.c  ****  *	@param euler_p_s16 : The raw p data
ARM GAS  /tmp/ccVWLGiI.s 			page 76


1521:Src/bno055.c  ****  *
1522:Src/bno055.c  ****  *	@return results of bus communication function
1523:Src/bno055.c  ****  *	@retval 0 -> BNO055_SUCCESS
1524:Src/bno055.c  ****  *	@retval 1 -> BNO055_ERROR
1525:Src/bno055.c  ****  *
1526:Src/bno055.c  ****  *
1527:Src/bno055.c  ****  */
1528:Src/bno055.c  **** BNO055_RETURN_FUNCTION_TYPE bno055_read_euler_p(s16 *euler_p_s16)
1529:Src/bno055.c  **** {
 2576              		.loc 1 1529 0
 2577              		.cfi_startproc
 2578              		@ args = 0, pretend = 0, frame = 8
 2579              		@ frame_needed = 0, uses_anonymous_args = 0
 2580              	.LVL272:
 2581 0000 30B5     		push	{r4, r5, lr}
 2582              	.LCFI103:
 2583              		.cfi_def_cfa_offset 12
 2584              		.cfi_offset 4, -12
 2585              		.cfi_offset 5, -8
 2586              		.cfi_offset 14, -4
1530:Src/bno055.c  **** 	/* Variable used to return value of
1531:Src/bno055.c  **** 	communication routine*/
1532:Src/bno055.c  **** 	BNO055_RETURN_FUNCTION_TYPE com_rslt = BNO055_ERROR;
1533:Src/bno055.c  **** 	/* Array holding the Euler p value
1534:Src/bno055.c  **** 	data_u8[BNO055_SENSOR_DATA_EULER_LSB] - p->LSB
1535:Src/bno055.c  **** 	data_u8[BNO055_SENSOR_DATA_EULER_MSB] - p->MSB
1536:Src/bno055.c  **** 	*/
1537:Src/bno055.c  **** 	u8 data_u8[BNO055_EULER_DATA_SIZE] = {
1538:Src/bno055.c  **** 	BNO055_INIT_VALUE, BNO055_INIT_VALUE};
1539:Src/bno055.c  **** 	s8 stat_s8 = BNO055_ERROR;
1540:Src/bno055.c  **** 	/* Check the struct p_bno055 is empty */
1541:Src/bno055.c  **** 	if (p_bno055 == BNO055_INIT_VALUE) {
 2587              		.loc 1 1541 0
 2588 0002 144C     		ldr	r4, .L303
1529:Src/bno055.c  **** 	/* Variable used to return value of
 2589              		.loc 1 1529 0
 2590 0004 83B0     		sub	sp, sp, #12
 2591              	.LCFI104:
 2592              		.cfi_def_cfa_offset 24
 2593              		.loc 1 1541 0
 2594 0006 2368     		ldr	r3, [r4]
1537:Src/bno055.c  **** 	BNO055_INIT_VALUE, BNO055_INIT_VALUE};
 2595              		.loc 1 1537 0
 2596 0008 0022     		movs	r2, #0
 2597 000a 8DF80420 		strb	r2, [sp, #4]
 2598 000e 8DF80520 		strb	r2, [sp, #5]
 2599              	.LVL273:
 2600              		.loc 1 1541 0
 2601 0012 EBB1     		cbz	r3, .L296
1542:Src/bno055.c  **** 		return BNO055_E_NULL_PTR;
1543:Src/bno055.c  **** 		} else {
1544:Src/bno055.c  **** 		/*condition check for page, chip id is
1545:Src/bno055.c  **** 		available in the page zero*/
1546:Src/bno055.c  **** 		if (p_bno055->page_id != BNO055_PAGE_ZERO)
 2602              		.loc 1 1546 0
 2603 0014 1979     		ldrb	r1, [r3, #4]	@ zero_extendqisi2
 2604 0016 0546     		mov	r5, r0
ARM GAS  /tmp/ccVWLGiI.s 			page 77


 2605 0018 79B9     		cbnz	r1, .L302
 2606              	.LVL274:
 2607              	.L294:
1547:Src/bno055.c  **** 			/* Write the page zero*/
1548:Src/bno055.c  **** 			stat_s8 = bno055_write_page_id(BNO055_PAGE_ZERO);
1549:Src/bno055.c  **** 		if ((stat_s8 == BNO055_SUCCESS) ||
1550:Src/bno055.c  **** 		(p_bno055->page_id == BNO055_PAGE_ZERO)) {
1551:Src/bno055.c  **** 			/* Read the Euler p data*/
1552:Src/bno055.c  **** 			com_rslt = p_bno055->BNO055_BUS_READ_FUNC
 2608              		.loc 1 1552 0
 2609 001a 1C69     		ldr	r4, [r3, #16]
 2610 001c 587A     		ldrb	r0, [r3, #9]	@ zero_extendqisi2
 2611 001e 01AA     		add	r2, sp, #4
 2612 0020 0223     		movs	r3, #2
 2613 0022 1E21     		movs	r1, #30
 2614 0024 A047     		blx	r4
 2615              	.LVL275:
1553:Src/bno055.c  **** 			(p_bno055->dev_addr,
1554:Src/bno055.c  **** 			BNO055_EULER_P_LSB_VALUEP_REG,
1555:Src/bno055.c  **** 			data_u8, BNO055_LSB_MSB_READ_LENGTH);
1556:Src/bno055.c  **** 			data_u8[BNO055_SENSOR_DATA_EULER_LSB] =
1557:Src/bno055.c  **** 			BNO055_GET_BITSLICE(
1558:Src/bno055.c  **** 			data_u8[BNO055_SENSOR_DATA_EULER_LSB],
1559:Src/bno055.c  **** 			BNO055_EULER_P_LSB_VALUEP);
1560:Src/bno055.c  **** 			data_u8[BNO055_SENSOR_DATA_EULER_MSB] =
1561:Src/bno055.c  **** 			BNO055_GET_BITSLICE(
1562:Src/bno055.c  **** 			data_u8[BNO055_SENSOR_DATA_EULER_MSB],
1563:Src/bno055.c  **** 			BNO055_EULER_P_MSB_VALUEP);
1564:Src/bno055.c  **** 			*euler_p_s16 = (s16)((((s32)
 2616              		.loc 1 1564 0
 2617 0026 9DF90520 		ldrsb	r2, [sp, #5]
 2618 002a 9DF80430 		ldrb	r3, [sp, #4]	@ zero_extendqisi2
 2619 002e 43EA0223 		orr	r3, r3, r2, lsl #8
 2620 0032 2B80     		strh	r3, [r5]	@ movhi
 2621              	.LVL276:
 2622              	.L293:
1565:Src/bno055.c  **** 			((s8)data_u8[BNO055_SENSOR_DATA_EULER_MSB])) <<
1566:Src/bno055.c  **** 			BNO055_SHIFT_EIGHT_BITS)
1567:Src/bno055.c  **** 			| (data_u8[BNO055_SENSOR_DATA_EULER_LSB]));
1568:Src/bno055.c  **** 		} else {
1569:Src/bno055.c  **** 		com_rslt = BNO055_ERROR;
1570:Src/bno055.c  **** 		}
1571:Src/bno055.c  **** 	}
1572:Src/bno055.c  **** 	return com_rslt;
1573:Src/bno055.c  **** }
 2623              		.loc 1 1573 0
 2624 0034 40B2     		sxtb	r0, r0
 2625 0036 03B0     		add	sp, sp, #12
 2626              	.LCFI105:
 2627              		.cfi_remember_state
 2628              		.cfi_def_cfa_offset 12
 2629              		@ sp needed
 2630 0038 30BD     		pop	{r4, r5, pc}
 2631              	.LVL277:
 2632              	.L302:
 2633              	.LCFI106:
 2634              		.cfi_restore_state
ARM GAS  /tmp/ccVWLGiI.s 			page 78


1548:Src/bno055.c  **** 		if ((stat_s8 == BNO055_SUCCESS) ||
 2635              		.loc 1 1548 0
 2636 003a 1046     		mov	r0, r2
 2637              	.LVL278:
 2638 003c FFF7FEFF 		bl	bno055_write_page_id
 2639              	.LVL279:
 2640 0040 2368     		ldr	r3, [r4]
1549:Src/bno055.c  **** 		(p_bno055->page_id == BNO055_PAGE_ZERO)) {
 2641              		.loc 1 1549 0
 2642 0042 0028     		cmp	r0, #0
 2643 0044 E9D0     		beq	.L294
 2644              	.LVL280:
1549:Src/bno055.c  **** 		(p_bno055->page_id == BNO055_PAGE_ZERO)) {
 2645              		.loc 1 1549 0 is_stmt 0 discriminator 1
 2646 0046 1A79     		ldrb	r2, [r3, #4]	@ zero_extendqisi2
1569:Src/bno055.c  **** 		}
 2647              		.loc 1 1569 0 is_stmt 1 discriminator 1
 2648 0048 FF20     		movs	r0, #255
1549:Src/bno055.c  **** 		(p_bno055->page_id == BNO055_PAGE_ZERO)) {
 2649              		.loc 1 1549 0 discriminator 1
 2650 004a 002A     		cmp	r2, #0
 2651 004c F2D1     		bne	.L293
 2652 004e E4E7     		b	.L294
 2653              	.LVL281:
 2654              	.L296:
1542:Src/bno055.c  **** 		} else {
 2655              		.loc 1 1542 0
 2656 0050 8120     		movs	r0, #129
 2657              	.LVL282:
 2658 0052 EFE7     		b	.L293
 2659              	.L304:
 2660              		.align	2
 2661              	.L303:
 2662 0054 00000000 		.word	.LANCHOR0
 2663              		.cfi_endproc
 2664              	.LFE25:
 2666              		.section	.text.bno055_read_euler_hrp,"ax",%progbits
 2667              		.align	2
 2668              		.global	bno055_read_euler_hrp
 2669              		.thumb
 2670              		.thumb_func
 2672              	bno055_read_euler_hrp:
 2673              	.LFB26:
1574:Src/bno055.c  **** /*!
1575:Src/bno055.c  ****  *	@brief This API reads Euler data hrp values
1576:Src/bno055.c  ****  *	from register 0x1A to 0x1F it is a six byte data
1577:Src/bno055.c  ****  *
1578:Src/bno055.c  ****  *
1579:Src/bno055.c  ****  *	@param euler : The Euler hrp data's
1580:Src/bno055.c  ****  *
1581:Src/bno055.c  ****  *	Parameter |    result
1582:Src/bno055.c  ****  *  --------- | -----------------
1583:Src/bno055.c  ****  *	 h        | The Euler h data
1584:Src/bno055.c  ****  *	 r        | The Euler r data
1585:Src/bno055.c  ****  *	 p        | The Euler p data
1586:Src/bno055.c  ****  *
1587:Src/bno055.c  ****  *
ARM GAS  /tmp/ccVWLGiI.s 			page 79


1588:Src/bno055.c  ****  *	@return results of bus communication function
1589:Src/bno055.c  ****  *	@retval 0 -> BNO055_SUCCESS
1590:Src/bno055.c  ****  *	@retval 1 -> BNO055_ERROR
1591:Src/bno055.c  ****  *
1592:Src/bno055.c  ****  */
1593:Src/bno055.c  **** BNO055_RETURN_FUNCTION_TYPE bno055_read_euler_hrp(
1594:Src/bno055.c  **** struct bno055_euler_t *euler)
1595:Src/bno055.c  **** {
 2674              		.loc 1 1595 0
 2675              		.cfi_startproc
 2676              		@ args = 0, pretend = 0, frame = 8
 2677              		@ frame_needed = 0, uses_anonymous_args = 0
 2678              	.LVL283:
 2679 0000 F0B5     		push	{r4, r5, r6, r7, lr}
 2680              	.LCFI107:
 2681              		.cfi_def_cfa_offset 20
 2682              		.cfi_offset 4, -20
 2683              		.cfi_offset 5, -16
 2684              		.cfi_offset 6, -12
 2685              		.cfi_offset 7, -8
 2686              		.cfi_offset 14, -4
1596:Src/bno055.c  **** 	/* Variable used to return value of
1597:Src/bno055.c  **** 	communication routine*/
1598:Src/bno055.c  **** 	BNO055_RETURN_FUNCTION_TYPE com_rslt = BNO055_ERROR;
1599:Src/bno055.c  **** 	/* Array holding the Euler hrp value
1600:Src/bno055.c  **** 	data_u8[BNO055_SENSOR_DATA_EULER_HRP_H_LSB] - h->LSB
1601:Src/bno055.c  **** 	data_u8[BNO055_SENSOR_DATA_EULER_HRP_H_MSB] - h->MSB
1602:Src/bno055.c  **** 	data_u8[BNO055_SENSOR_DATA_EULER_HRP_R_LSB] - r->MSB
1603:Src/bno055.c  **** 	data_u8[BNO055_SENSOR_DATA_EULER_HRP_R_MSB] - r->MSB
1604:Src/bno055.c  **** 	data_u8[BNO055_SENSOR_DATA_EULER_HRP_P_LSB] - p->MSB
1605:Src/bno055.c  **** 	data_u8[BNO055_SENSOR_DATA_EULER_HRP_P_MSB] - p->MSB
1606:Src/bno055.c  **** 	*/
1607:Src/bno055.c  **** 	u8 data_u8[BNO055_EULER_HRP_DATA_SIZE] = {
1608:Src/bno055.c  **** 	BNO055_INIT_VALUE, BNO055_INIT_VALUE,
1609:Src/bno055.c  **** 	BNO055_INIT_VALUE, BNO055_INIT_VALUE,
1610:Src/bno055.c  **** 	BNO055_INIT_VALUE, BNO055_INIT_VALUE};
1611:Src/bno055.c  **** 	s8 stat_s8 = BNO055_ERROR;
1612:Src/bno055.c  **** 	/* Check the struct p_bno055 is empty */
1613:Src/bno055.c  **** 	if (p_bno055 == BNO055_INIT_VALUE) {
 2687              		.loc 1 1613 0
 2688 0002 1F4D     		ldr	r5, .L316
1595:Src/bno055.c  **** 	/* Variable used to return value of
 2689              		.loc 1 1595 0
 2690 0004 83B0     		sub	sp, sp, #12
 2691              	.LCFI108:
 2692              		.cfi_def_cfa_offset 32
 2693              		.loc 1 1613 0
 2694 0006 2A68     		ldr	r2, [r5]
1607:Src/bno055.c  **** 	BNO055_INIT_VALUE, BNO055_INIT_VALUE,
 2695              		.loc 1 1607 0
 2696 0008 0023     		movs	r3, #0
 2697 000a 8DF80030 		strb	r3, [sp]
 2698 000e 8DF80130 		strb	r3, [sp, #1]
 2699 0012 8DF80230 		strb	r3, [sp, #2]
 2700 0016 8DF80330 		strb	r3, [sp, #3]
 2701 001a 8DF80430 		strb	r3, [sp, #4]
 2702 001e 8DF80530 		strb	r3, [sp, #5]
ARM GAS  /tmp/ccVWLGiI.s 			page 80


 2703              	.LVL284:
 2704              		.loc 1 1613 0
 2705 0022 5AB3     		cbz	r2, .L309
1614:Src/bno055.c  **** 		return BNO055_E_NULL_PTR;
1615:Src/bno055.c  **** 		} else {
1616:Src/bno055.c  **** 		/*condition check for page, chip id is
1617:Src/bno055.c  **** 		available in the page zero*/
1618:Src/bno055.c  **** 		if (p_bno055->page_id != BNO055_PAGE_ZERO)
 2706              		.loc 1 1618 0
 2707 0024 1179     		ldrb	r1, [r2, #4]	@ zero_extendqisi2
 2708 0026 0446     		mov	r4, r0
 2709 0028 E9B9     		cbnz	r1, .L315
 2710              	.LVL285:
 2711              	.L307:
1619:Src/bno055.c  **** 			/* Write the page zero*/
1620:Src/bno055.c  **** 			stat_s8 = bno055_write_page_id(BNO055_PAGE_ZERO);
1621:Src/bno055.c  **** 		if ((stat_s8 == BNO055_SUCCESS) ||
1622:Src/bno055.c  **** 		(p_bno055->page_id == BNO055_PAGE_ZERO)) {
1623:Src/bno055.c  **** 			/* Read the six byte of Euler hrp data*/
1624:Src/bno055.c  **** 			com_rslt = p_bno055->BNO055_BUS_READ_FUNC
 2712              		.loc 1 1624 0
 2713 002a 1569     		ldr	r5, [r2, #16]
 2714 002c 507A     		ldrb	r0, [r2, #9]	@ zero_extendqisi2
 2715 002e 1A21     		movs	r1, #26
 2716 0030 6A46     		mov	r2, sp
 2717 0032 0623     		movs	r3, #6
 2718 0034 A847     		blx	r5
 2719              	.LVL286:
1625:Src/bno055.c  **** 			(p_bno055->dev_addr,
1626:Src/bno055.c  **** 			BNO055_EULER_H_LSB_VALUEH_REG,
1627:Src/bno055.c  **** 			data_u8, BNO055_EULER_HRP_DATA_SIZE);
1628:Src/bno055.c  **** 			/* Data h*/
1629:Src/bno055.c  **** 			data_u8[BNO055_SENSOR_DATA_EULER_HRP_H_LSB] =
1630:Src/bno055.c  **** 			BNO055_GET_BITSLICE(
1631:Src/bno055.c  **** 			data_u8[BNO055_SENSOR_DATA_EULER_HRP_H_LSB],
1632:Src/bno055.c  **** 			BNO055_EULER_H_LSB_VALUEH);
1633:Src/bno055.c  **** 			data_u8[BNO055_SENSOR_DATA_EULER_HRP_H_MSB] =
1634:Src/bno055.c  **** 			BNO055_GET_BITSLICE(
1635:Src/bno055.c  **** 			data_u8[BNO055_SENSOR_DATA_EULER_HRP_H_MSB],
1636:Src/bno055.c  **** 			BNO055_EULER_H_MSB_VALUEH);
1637:Src/bno055.c  **** 			euler->h = (s16)((((s32)
 2720              		.loc 1 1637 0
 2721 0036 9DF90170 		ldrsb	r7, [sp, #1]
 2722 003a 9DF80010 		ldrb	r1, [sp]	@ zero_extendqisi2
1638:Src/bno055.c  **** 			((s8)data_u8[BNO055_SENSOR_DATA_EULER_HRP_H_MSB])) <<
1639:Src/bno055.c  **** 			BNO055_SHIFT_EIGHT_BITS) |
1640:Src/bno055.c  **** 			(data_u8[BNO055_SENSOR_DATA_EULER_HRP_H_LSB]));
1641:Src/bno055.c  **** 			/* Data r*/
1642:Src/bno055.c  **** 			data_u8[BNO055_SENSOR_DATA_EULER_HRP_R_LSB] =
1643:Src/bno055.c  **** 			BNO055_GET_BITSLICE(
1644:Src/bno055.c  **** 			data_u8[BNO055_SENSOR_DATA_EULER_HRP_R_LSB],
1645:Src/bno055.c  **** 			BNO055_EULER_R_LSB_VALUER);
1646:Src/bno055.c  **** 			data_u8[BNO055_SENSOR_DATA_EULER_HRP_R_MSB] =
1647:Src/bno055.c  **** 			BNO055_GET_BITSLICE(
1648:Src/bno055.c  **** 			data_u8[BNO055_SENSOR_DATA_EULER_HRP_R_MSB],
1649:Src/bno055.c  **** 			BNO055_EULER_R_MSB_VALUER);
1650:Src/bno055.c  **** 			euler->r = (s16)((((s32)
ARM GAS  /tmp/ccVWLGiI.s 			page 81


 2723              		.loc 1 1650 0
 2724 003e 9DF90360 		ldrsb	r6, [sp, #3]
 2725 0042 9DF80220 		ldrb	r2, [sp, #2]	@ zero_extendqisi2
1651:Src/bno055.c  **** 			((s8)data_u8[BNO055_SENSOR_DATA_EULER_HRP_R_MSB])) <<
1652:Src/bno055.c  **** 			BNO055_SHIFT_EIGHT_BITS)
1653:Src/bno055.c  **** 			| (data_u8[BNO055_SENSOR_DATA_EULER_HRP_R_LSB]));
1654:Src/bno055.c  **** 			/* Data p*/
1655:Src/bno055.c  **** 			data_u8[BNO055_SENSOR_DATA_EULER_HRP_P_LSB] =
1656:Src/bno055.c  **** 			BNO055_GET_BITSLICE(
1657:Src/bno055.c  **** 			data_u8[BNO055_SENSOR_DATA_EULER_HRP_P_LSB],
1658:Src/bno055.c  **** 			BNO055_EULER_P_LSB_VALUEP);
1659:Src/bno055.c  **** 			data_u8[BNO055_SENSOR_DATA_EULER_HRP_P_MSB] =
1660:Src/bno055.c  **** 			BNO055_GET_BITSLICE(
1661:Src/bno055.c  **** 			data_u8[BNO055_SENSOR_DATA_EULER_HRP_P_MSB],
1662:Src/bno055.c  **** 			BNO055_EULER_P_MSB_VALUEP);
1663:Src/bno055.c  **** 			euler->p = (s16)((((s32)
 2726              		.loc 1 1663 0
 2727 0046 9DF90550 		ldrsb	r5, [sp, #5]
 2728 004a 9DF80430 		ldrb	r3, [sp, #4]	@ zero_extendqisi2
1637:Src/bno055.c  **** 			((s8)data_u8[BNO055_SENSOR_DATA_EULER_HRP_H_MSB])) <<
 2729              		.loc 1 1637 0
 2730 004e 41EA0721 		orr	r1, r1, r7, lsl #8
1650:Src/bno055.c  **** 			((s8)data_u8[BNO055_SENSOR_DATA_EULER_HRP_R_MSB])) <<
 2731              		.loc 1 1650 0
 2732 0052 42EA0622 		orr	r2, r2, r6, lsl #8
 2733              		.loc 1 1663 0
 2734 0056 43EA0523 		orr	r3, r3, r5, lsl #8
1637:Src/bno055.c  **** 			((s8)data_u8[BNO055_SENSOR_DATA_EULER_HRP_H_MSB])) <<
 2735              		.loc 1 1637 0
 2736 005a 2180     		strh	r1, [r4]	@ movhi
1650:Src/bno055.c  **** 			((s8)data_u8[BNO055_SENSOR_DATA_EULER_HRP_R_MSB])) <<
 2737              		.loc 1 1650 0
 2738 005c 6280     		strh	r2, [r4, #2]	@ movhi
 2739              		.loc 1 1663 0
 2740 005e A380     		strh	r3, [r4, #4]	@ movhi
 2741              	.LVL287:
 2742              	.L306:
1664:Src/bno055.c  **** 			((s8)data_u8[BNO055_SENSOR_DATA_EULER_HRP_P_MSB])) <<
1665:Src/bno055.c  **** 			BNO055_SHIFT_EIGHT_BITS)
1666:Src/bno055.c  **** 			| (data_u8[BNO055_SENSOR_DATA_EULER_HRP_P_LSB]));
1667:Src/bno055.c  **** 		} else {
1668:Src/bno055.c  **** 		com_rslt = BNO055_ERROR;
1669:Src/bno055.c  **** 		}
1670:Src/bno055.c  **** 	}
1671:Src/bno055.c  **** 	return com_rslt;
1672:Src/bno055.c  **** }
 2743              		.loc 1 1672 0
 2744 0060 40B2     		sxtb	r0, r0
 2745 0062 03B0     		add	sp, sp, #12
 2746              	.LCFI109:
 2747              		.cfi_remember_state
 2748              		.cfi_def_cfa_offset 20
 2749              		@ sp needed
 2750 0064 F0BD     		pop	{r4, r5, r6, r7, pc}
 2751              	.LVL288:
 2752              	.L315:
 2753              	.LCFI110:
ARM GAS  /tmp/ccVWLGiI.s 			page 82


 2754              		.cfi_restore_state
1620:Src/bno055.c  **** 		if ((stat_s8 == BNO055_SUCCESS) ||
 2755              		.loc 1 1620 0
 2756 0066 1846     		mov	r0, r3
 2757              	.LVL289:
 2758 0068 FFF7FEFF 		bl	bno055_write_page_id
 2759              	.LVL290:
 2760 006c 2A68     		ldr	r2, [r5]
1621:Src/bno055.c  **** 		(p_bno055->page_id == BNO055_PAGE_ZERO)) {
 2761              		.loc 1 1621 0
 2762 006e 0028     		cmp	r0, #0
 2763 0070 DBD0     		beq	.L307
 2764              	.LVL291:
1621:Src/bno055.c  **** 		(p_bno055->page_id == BNO055_PAGE_ZERO)) {
 2765              		.loc 1 1621 0 is_stmt 0 discriminator 1
 2766 0072 1379     		ldrb	r3, [r2, #4]	@ zero_extendqisi2
1668:Src/bno055.c  **** 		}
 2767              		.loc 1 1668 0 is_stmt 1 discriminator 1
 2768 0074 FF20     		movs	r0, #255
1621:Src/bno055.c  **** 		(p_bno055->page_id == BNO055_PAGE_ZERO)) {
 2769              		.loc 1 1621 0 discriminator 1
 2770 0076 002B     		cmp	r3, #0
 2771 0078 F2D1     		bne	.L306
 2772 007a D6E7     		b	.L307
 2773              	.LVL292:
 2774              	.L309:
1614:Src/bno055.c  **** 		} else {
 2775              		.loc 1 1614 0
 2776 007c 8120     		movs	r0, #129
 2777              	.LVL293:
 2778 007e EFE7     		b	.L306
 2779              	.L317:
 2780              		.align	2
 2781              	.L316:
 2782 0080 00000000 		.word	.LANCHOR0
 2783              		.cfi_endproc
 2784              	.LFE26:
 2786              		.section	.text.bno055_read_quaternion_w,"ax",%progbits
 2787              		.align	2
 2788              		.global	bno055_read_quaternion_w
 2789              		.thumb
 2790              		.thumb_func
 2792              	bno055_read_quaternion_w:
 2793              	.LFB27:
1673:Src/bno055.c  **** /*!
1674:Src/bno055.c  ****  *	@brief This API reads quaternion data w values
1675:Src/bno055.c  ****  *	from register 0x20 and 0x21 it is a two byte data
1676:Src/bno055.c  ****  *
1677:Src/bno055.c  ****  *	@param quaternion_w_s16 : The raw w data
1678:Src/bno055.c  ****  *
1679:Src/bno055.c  ****  *	@return results of bus communication function
1680:Src/bno055.c  ****  *	@retval 0 -> BNO055_SUCCESS
1681:Src/bno055.c  ****  *	@retval 1 -> BNO055_ERROR
1682:Src/bno055.c  ****  *
1683:Src/bno055.c  ****  *
1684:Src/bno055.c  ****  */
1685:Src/bno055.c  **** BNO055_RETURN_FUNCTION_TYPE bno055_read_quaternion_w(
ARM GAS  /tmp/ccVWLGiI.s 			page 83


1686:Src/bno055.c  **** s16 *quaternion_w_s16)
1687:Src/bno055.c  **** {
 2794              		.loc 1 1687 0
 2795              		.cfi_startproc
 2796              		@ args = 0, pretend = 0, frame = 8
 2797              		@ frame_needed = 0, uses_anonymous_args = 0
 2798              	.LVL294:
 2799 0000 30B5     		push	{r4, r5, lr}
 2800              	.LCFI111:
 2801              		.cfi_def_cfa_offset 12
 2802              		.cfi_offset 4, -12
 2803              		.cfi_offset 5, -8
 2804              		.cfi_offset 14, -4
1688:Src/bno055.c  **** 	/* Variable used to return value of
1689:Src/bno055.c  **** 	communication routine*/
1690:Src/bno055.c  **** 	BNO055_RETURN_FUNCTION_TYPE com_rslt = BNO055_ERROR;
1691:Src/bno055.c  **** 	/* Array holding the Quaternion w value
1692:Src/bno055.c  **** 	data_u8[BNO055_SENSOR_DATA_QUATERNION_LSB] - w->LSB
1693:Src/bno055.c  **** 	data_u8[BNO055_SENSOR_DATA_QUATERNION_MSB] - w->MSB
1694:Src/bno055.c  **** 	*/
1695:Src/bno055.c  **** 	u8 data_u8[BNO055_QUATERNION_DATA_SIZE] = {
1696:Src/bno055.c  **** 	BNO055_INIT_VALUE, BNO055_INIT_VALUE};
1697:Src/bno055.c  **** 	s8 stat_s8 = BNO055_ERROR;
1698:Src/bno055.c  **** 	/* Check the struct p_bno055 is empty */
1699:Src/bno055.c  **** 	if (p_bno055 == BNO055_INIT_VALUE) {
 2805              		.loc 1 1699 0
 2806 0002 144C     		ldr	r4, .L329
1687:Src/bno055.c  **** 	/* Variable used to return value of
 2807              		.loc 1 1687 0
 2808 0004 83B0     		sub	sp, sp, #12
 2809              	.LCFI112:
 2810              		.cfi_def_cfa_offset 24
 2811              		.loc 1 1699 0
 2812 0006 2368     		ldr	r3, [r4]
1695:Src/bno055.c  **** 	BNO055_INIT_VALUE, BNO055_INIT_VALUE};
 2813              		.loc 1 1695 0
 2814 0008 0022     		movs	r2, #0
 2815 000a 8DF80420 		strb	r2, [sp, #4]
 2816 000e 8DF80520 		strb	r2, [sp, #5]
 2817              	.LVL295:
 2818              		.loc 1 1699 0
 2819 0012 EBB1     		cbz	r3, .L322
1700:Src/bno055.c  **** 		return BNO055_E_NULL_PTR;
1701:Src/bno055.c  **** 		} else {
1702:Src/bno055.c  **** 		/*condition check for page, chip id is
1703:Src/bno055.c  **** 		available in the page zero*/
1704:Src/bno055.c  **** 		if (p_bno055->page_id != BNO055_PAGE_ZERO)
 2820              		.loc 1 1704 0
 2821 0014 1979     		ldrb	r1, [r3, #4]	@ zero_extendqisi2
 2822 0016 0546     		mov	r5, r0
 2823 0018 79B9     		cbnz	r1, .L328
 2824              	.LVL296:
 2825              	.L320:
1705:Src/bno055.c  **** 			/* Write the page zero*/
1706:Src/bno055.c  **** 			stat_s8 = bno055_write_page_id(BNO055_PAGE_ZERO);
1707:Src/bno055.c  **** 		if ((stat_s8 == BNO055_SUCCESS) ||
1708:Src/bno055.c  **** 		(p_bno055->page_id == BNO055_PAGE_ZERO)) {
ARM GAS  /tmp/ccVWLGiI.s 			page 84


1709:Src/bno055.c  **** 			/* Read the two byte value
1710:Src/bno055.c  **** 			of quaternion w data*/
1711:Src/bno055.c  **** 			com_rslt = p_bno055->BNO055_BUS_READ_FUNC
 2826              		.loc 1 1711 0
 2827 001a 1C69     		ldr	r4, [r3, #16]
 2828 001c 587A     		ldrb	r0, [r3, #9]	@ zero_extendqisi2
 2829 001e 01AA     		add	r2, sp, #4
 2830 0020 0223     		movs	r3, #2
 2831 0022 2021     		movs	r1, #32
 2832 0024 A047     		blx	r4
 2833              	.LVL297:
1712:Src/bno055.c  **** 			(p_bno055->dev_addr,
1713:Src/bno055.c  **** 			BNO055_QUATERNION_DATA_W_LSB_VALUEW_REG,
1714:Src/bno055.c  **** 			data_u8, BNO055_LSB_MSB_READ_LENGTH);
1715:Src/bno055.c  **** 			data_u8[BNO055_SENSOR_DATA_QUATERNION_LSB] =
1716:Src/bno055.c  **** 			BNO055_GET_BITSLICE(
1717:Src/bno055.c  **** 			data_u8[BNO055_SENSOR_DATA_QUATERNION_LSB],
1718:Src/bno055.c  **** 			BNO055_QUATERNION_DATA_W_LSB_VALUEW);
1719:Src/bno055.c  **** 			data_u8[BNO055_SENSOR_DATA_QUATERNION_MSB] =
1720:Src/bno055.c  **** 			BNO055_GET_BITSLICE(
1721:Src/bno055.c  **** 			data_u8[BNO055_SENSOR_DATA_QUATERNION_MSB],
1722:Src/bno055.c  **** 			BNO055_QUATERNION_DATA_W_MSB_VALUEW);
1723:Src/bno055.c  **** 			*quaternion_w_s16 = (s16)((((s32)
 2834              		.loc 1 1723 0
 2835 0026 9DF90520 		ldrsb	r2, [sp, #5]
 2836 002a 9DF80430 		ldrb	r3, [sp, #4]	@ zero_extendqisi2
 2837 002e 43EA0223 		orr	r3, r3, r2, lsl #8
 2838 0032 2B80     		strh	r3, [r5]	@ movhi
 2839              	.LVL298:
 2840              	.L319:
1724:Src/bno055.c  **** 			((s8)data_u8[BNO055_SENSOR_DATA_QUATERNION_MSB])) <<
1725:Src/bno055.c  **** 			BNO055_SHIFT_EIGHT_BITS)
1726:Src/bno055.c  **** 			| (data_u8[BNO055_SENSOR_DATA_QUATERNION_LSB]));
1727:Src/bno055.c  **** 		} else {
1728:Src/bno055.c  **** 		com_rslt = BNO055_ERROR;
1729:Src/bno055.c  **** 		}
1730:Src/bno055.c  **** 	}
1731:Src/bno055.c  **** 	return com_rslt;
1732:Src/bno055.c  **** }
 2841              		.loc 1 1732 0
 2842 0034 40B2     		sxtb	r0, r0
 2843 0036 03B0     		add	sp, sp, #12
 2844              	.LCFI113:
 2845              		.cfi_remember_state
 2846              		.cfi_def_cfa_offset 12
 2847              		@ sp needed
 2848 0038 30BD     		pop	{r4, r5, pc}
 2849              	.LVL299:
 2850              	.L328:
 2851              	.LCFI114:
 2852              		.cfi_restore_state
1706:Src/bno055.c  **** 		if ((stat_s8 == BNO055_SUCCESS) ||
 2853              		.loc 1 1706 0
 2854 003a 1046     		mov	r0, r2
 2855              	.LVL300:
 2856 003c FFF7FEFF 		bl	bno055_write_page_id
 2857              	.LVL301:
ARM GAS  /tmp/ccVWLGiI.s 			page 85


 2858 0040 2368     		ldr	r3, [r4]
1707:Src/bno055.c  **** 		(p_bno055->page_id == BNO055_PAGE_ZERO)) {
 2859              		.loc 1 1707 0
 2860 0042 0028     		cmp	r0, #0
 2861 0044 E9D0     		beq	.L320
 2862              	.LVL302:
1707:Src/bno055.c  **** 		(p_bno055->page_id == BNO055_PAGE_ZERO)) {
 2863              		.loc 1 1707 0 is_stmt 0 discriminator 1
 2864 0046 1A79     		ldrb	r2, [r3, #4]	@ zero_extendqisi2
1728:Src/bno055.c  **** 		}
 2865              		.loc 1 1728 0 is_stmt 1 discriminator 1
 2866 0048 FF20     		movs	r0, #255
1707:Src/bno055.c  **** 		(p_bno055->page_id == BNO055_PAGE_ZERO)) {
 2867              		.loc 1 1707 0 discriminator 1
 2868 004a 002A     		cmp	r2, #0
 2869 004c F2D1     		bne	.L319
 2870 004e E4E7     		b	.L320
 2871              	.LVL303:
 2872              	.L322:
1700:Src/bno055.c  **** 		} else {
 2873              		.loc 1 1700 0
 2874 0050 8120     		movs	r0, #129
 2875              	.LVL304:
 2876 0052 EFE7     		b	.L319
 2877              	.L330:
 2878              		.align	2
 2879              	.L329:
 2880 0054 00000000 		.word	.LANCHOR0
 2881              		.cfi_endproc
 2882              	.LFE27:
 2884              		.section	.text.bno055_read_quaternion_x,"ax",%progbits
 2885              		.align	2
 2886              		.global	bno055_read_quaternion_x
 2887              		.thumb
 2888              		.thumb_func
 2890              	bno055_read_quaternion_x:
 2891              	.LFB28:
1733:Src/bno055.c  **** /*!
1734:Src/bno055.c  ****  *	@brief This API reads quaternion data x values
1735:Src/bno055.c  ****  *	from register 0x22 and 0x23 it is a two byte data
1736:Src/bno055.c  ****  *
1737:Src/bno055.c  ****  *	@param quaternion_x_s16 : The raw x data
1738:Src/bno055.c  ****  *
1739:Src/bno055.c  ****  *	@return results of bus communication function
1740:Src/bno055.c  ****  *	@retval 0 -> BNO055_SUCCESS
1741:Src/bno055.c  ****  *	@retval 1 -> BNO055_ERROR
1742:Src/bno055.c  ****  *
1743:Src/bno055.c  ****  *
1744:Src/bno055.c  ****  */
1745:Src/bno055.c  **** BNO055_RETURN_FUNCTION_TYPE bno055_read_quaternion_x(
1746:Src/bno055.c  **** s16 *quaternion_x_s16)
1747:Src/bno055.c  **** {
 2892              		.loc 1 1747 0
 2893              		.cfi_startproc
 2894              		@ args = 0, pretend = 0, frame = 8
 2895              		@ frame_needed = 0, uses_anonymous_args = 0
 2896              	.LVL305:
ARM GAS  /tmp/ccVWLGiI.s 			page 86


 2897 0000 30B5     		push	{r4, r5, lr}
 2898              	.LCFI115:
 2899              		.cfi_def_cfa_offset 12
 2900              		.cfi_offset 4, -12
 2901              		.cfi_offset 5, -8
 2902              		.cfi_offset 14, -4
1748:Src/bno055.c  **** 	/* Variable used to return value of
1749:Src/bno055.c  **** 	communication routine*/
1750:Src/bno055.c  **** 	BNO055_RETURN_FUNCTION_TYPE com_rslt = BNO055_ERROR;
1751:Src/bno055.c  **** 	/* Array holding the quaternion x value
1752:Src/bno055.c  **** 	data_u8[BNO055_SENSOR_DATA_QUATERNION_LSB] - x->LSB
1753:Src/bno055.c  **** 	data_u8[BNO055_SENSOR_DATA_QUATERNION_MSB] - x->MSB
1754:Src/bno055.c  **** 	*/
1755:Src/bno055.c  **** 	u8 data_u8[BNO055_QUATERNION_DATA_SIZE] = {BNO055_INIT_VALUE,
1756:Src/bno055.c  **** 	BNO055_INIT_VALUE};
1757:Src/bno055.c  **** 	s8 stat_s8 = BNO055_ERROR;
1758:Src/bno055.c  **** 	/* Check the struct p_bno055 is empty */
1759:Src/bno055.c  **** 	if (p_bno055 == BNO055_INIT_VALUE) {
 2903              		.loc 1 1759 0
 2904 0002 144C     		ldr	r4, .L342
1747:Src/bno055.c  **** 	/* Variable used to return value of
 2905              		.loc 1 1747 0
 2906 0004 83B0     		sub	sp, sp, #12
 2907              	.LCFI116:
 2908              		.cfi_def_cfa_offset 24
 2909              		.loc 1 1759 0
 2910 0006 2368     		ldr	r3, [r4]
1755:Src/bno055.c  **** 	BNO055_INIT_VALUE};
 2911              		.loc 1 1755 0
 2912 0008 0022     		movs	r2, #0
 2913 000a 8DF80420 		strb	r2, [sp, #4]
 2914 000e 8DF80520 		strb	r2, [sp, #5]
 2915              	.LVL306:
 2916              		.loc 1 1759 0
 2917 0012 EBB1     		cbz	r3, .L335
1760:Src/bno055.c  **** 		return BNO055_E_NULL_PTR;
1761:Src/bno055.c  **** 		} else {
1762:Src/bno055.c  **** 		/*condition check for page, chip id is
1763:Src/bno055.c  **** 		available in the page zero*/
1764:Src/bno055.c  **** 		if (p_bno055->page_id != BNO055_PAGE_ZERO)
 2918              		.loc 1 1764 0
 2919 0014 1979     		ldrb	r1, [r3, #4]	@ zero_extendqisi2
 2920 0016 0546     		mov	r5, r0
 2921 0018 79B9     		cbnz	r1, .L341
 2922              	.LVL307:
 2923              	.L333:
1765:Src/bno055.c  **** 			/* Write the page zero*/
1766:Src/bno055.c  **** 			stat_s8 = bno055_write_page_id(BNO055_PAGE_ZERO);
1767:Src/bno055.c  **** 		if ((stat_s8 == BNO055_SUCCESS) ||
1768:Src/bno055.c  **** 		(p_bno055->page_id == BNO055_PAGE_ZERO)) {
1769:Src/bno055.c  **** 			/* Read the two byte value
1770:Src/bno055.c  **** 			of quaternion x data*/
1771:Src/bno055.c  **** 			com_rslt = p_bno055->BNO055_BUS_READ_FUNC
 2924              		.loc 1 1771 0
 2925 001a 1C69     		ldr	r4, [r3, #16]
 2926 001c 587A     		ldrb	r0, [r3, #9]	@ zero_extendqisi2
 2927 001e 01AA     		add	r2, sp, #4
ARM GAS  /tmp/ccVWLGiI.s 			page 87


 2928 0020 0223     		movs	r3, #2
 2929 0022 2221     		movs	r1, #34
 2930 0024 A047     		blx	r4
 2931              	.LVL308:
1772:Src/bno055.c  **** 			(p_bno055->dev_addr,
1773:Src/bno055.c  **** 			BNO055_QUATERNION_DATA_X_LSB_VALUEX_REG,
1774:Src/bno055.c  **** 			data_u8, BNO055_LSB_MSB_READ_LENGTH);
1775:Src/bno055.c  **** 			data_u8[BNO055_SENSOR_DATA_QUATERNION_LSB] =
1776:Src/bno055.c  **** 			BNO055_GET_BITSLICE(
1777:Src/bno055.c  **** 			data_u8[BNO055_SENSOR_DATA_QUATERNION_LSB],
1778:Src/bno055.c  **** 			BNO055_QUATERNION_DATA_X_LSB_VALUEX);
1779:Src/bno055.c  **** 			data_u8[BNO055_SENSOR_DATA_QUATERNION_MSB] =
1780:Src/bno055.c  **** 			BNO055_GET_BITSLICE(
1781:Src/bno055.c  **** 			data_u8[BNO055_SENSOR_DATA_QUATERNION_MSB],
1782:Src/bno055.c  **** 			BNO055_QUATERNION_DATA_X_MSB_VALUEX);
1783:Src/bno055.c  **** 			*quaternion_x_s16 = (s16)((((s32)
 2932              		.loc 1 1783 0
 2933 0026 9DF90520 		ldrsb	r2, [sp, #5]
 2934 002a 9DF80430 		ldrb	r3, [sp, #4]	@ zero_extendqisi2
 2935 002e 43EA0223 		orr	r3, r3, r2, lsl #8
 2936 0032 2B80     		strh	r3, [r5]	@ movhi
 2937              	.LVL309:
 2938              	.L332:
1784:Src/bno055.c  **** 			((s8)data_u8[BNO055_SENSOR_DATA_QUATERNION_MSB])) <<
1785:Src/bno055.c  **** 			BNO055_SHIFT_EIGHT_BITS) |
1786:Src/bno055.c  **** 			(data_u8[BNO055_SENSOR_DATA_QUATERNION_LSB]));
1787:Src/bno055.c  **** 		} else {
1788:Src/bno055.c  **** 		com_rslt = BNO055_ERROR;
1789:Src/bno055.c  **** 		}
1790:Src/bno055.c  **** 	}
1791:Src/bno055.c  **** 	return com_rslt;
1792:Src/bno055.c  **** }
 2939              		.loc 1 1792 0
 2940 0034 40B2     		sxtb	r0, r0
 2941 0036 03B0     		add	sp, sp, #12
 2942              	.LCFI117:
 2943              		.cfi_remember_state
 2944              		.cfi_def_cfa_offset 12
 2945              		@ sp needed
 2946 0038 30BD     		pop	{r4, r5, pc}
 2947              	.LVL310:
 2948              	.L341:
 2949              	.LCFI118:
 2950              		.cfi_restore_state
1766:Src/bno055.c  **** 		if ((stat_s8 == BNO055_SUCCESS) ||
 2951              		.loc 1 1766 0
 2952 003a 1046     		mov	r0, r2
 2953              	.LVL311:
 2954 003c FFF7FEFF 		bl	bno055_write_page_id
 2955              	.LVL312:
 2956 0040 2368     		ldr	r3, [r4]
1767:Src/bno055.c  **** 		(p_bno055->page_id == BNO055_PAGE_ZERO)) {
 2957              		.loc 1 1767 0
 2958 0042 0028     		cmp	r0, #0
 2959 0044 E9D0     		beq	.L333
 2960              	.LVL313:
1767:Src/bno055.c  **** 		(p_bno055->page_id == BNO055_PAGE_ZERO)) {
ARM GAS  /tmp/ccVWLGiI.s 			page 88


 2961              		.loc 1 1767 0 is_stmt 0 discriminator 1
 2962 0046 1A79     		ldrb	r2, [r3, #4]	@ zero_extendqisi2
1788:Src/bno055.c  **** 		}
 2963              		.loc 1 1788 0 is_stmt 1 discriminator 1
 2964 0048 FF20     		movs	r0, #255
1767:Src/bno055.c  **** 		(p_bno055->page_id == BNO055_PAGE_ZERO)) {
 2965              		.loc 1 1767 0 discriminator 1
 2966 004a 002A     		cmp	r2, #0
 2967 004c F2D1     		bne	.L332
 2968 004e E4E7     		b	.L333
 2969              	.LVL314:
 2970              	.L335:
1760:Src/bno055.c  **** 		} else {
 2971              		.loc 1 1760 0
 2972 0050 8120     		movs	r0, #129
 2973              	.LVL315:
 2974 0052 EFE7     		b	.L332
 2975              	.L343:
 2976              		.align	2
 2977              	.L342:
 2978 0054 00000000 		.word	.LANCHOR0
 2979              		.cfi_endproc
 2980              	.LFE28:
 2982              		.section	.text.bno055_read_quaternion_y,"ax",%progbits
 2983              		.align	2
 2984              		.global	bno055_read_quaternion_y
 2985              		.thumb
 2986              		.thumb_func
 2988              	bno055_read_quaternion_y:
 2989              	.LFB29:
1793:Src/bno055.c  **** /*!
1794:Src/bno055.c  ****  *	@brief This API reads quaternion data y values
1795:Src/bno055.c  ****  *	from register 0x24 and 0x25 it is a two byte data
1796:Src/bno055.c  ****  *
1797:Src/bno055.c  ****  *	@param quaternion_y_s16 : The raw y data
1798:Src/bno055.c  ****  *
1799:Src/bno055.c  ****  *	@return results of bus communication function
1800:Src/bno055.c  ****  *	@retval 0 -> BNO055_SUCCESS
1801:Src/bno055.c  ****  *	@retval 1 -> BNO055_ERROR
1802:Src/bno055.c  ****  *
1803:Src/bno055.c  ****  *
1804:Src/bno055.c  ****  */
1805:Src/bno055.c  **** BNO055_RETURN_FUNCTION_TYPE bno055_read_quaternion_y(
1806:Src/bno055.c  **** s16 *quaternion_y_s16)
1807:Src/bno055.c  **** {
 2990              		.loc 1 1807 0
 2991              		.cfi_startproc
 2992              		@ args = 0, pretend = 0, frame = 8
 2993              		@ frame_needed = 0, uses_anonymous_args = 0
 2994              	.LVL316:
 2995 0000 30B5     		push	{r4, r5, lr}
 2996              	.LCFI119:
 2997              		.cfi_def_cfa_offset 12
 2998              		.cfi_offset 4, -12
 2999              		.cfi_offset 5, -8
 3000              		.cfi_offset 14, -4
1808:Src/bno055.c  **** 	/* Variable used to return value of
ARM GAS  /tmp/ccVWLGiI.s 			page 89


1809:Src/bno055.c  **** 	communication routine*/
1810:Src/bno055.c  **** 	BNO055_RETURN_FUNCTION_TYPE com_rslt = BNO055_ERROR;
1811:Src/bno055.c  **** 	/* Array holding the quaternion y value
1812:Src/bno055.c  **** 	data_u8[BNO055_SENSOR_DATA_QUATERNION_LSB] - y->LSB
1813:Src/bno055.c  **** 	data_u8[BNO055_SENSOR_DATA_QUATERNION_MSB] - y->MSB
1814:Src/bno055.c  **** 	*/
1815:Src/bno055.c  **** 	u8 data_u8[BNO055_QUATERNION_DATA_SIZE] = {BNO055_INIT_VALUE,
1816:Src/bno055.c  **** 	BNO055_INIT_VALUE};
1817:Src/bno055.c  **** 	s8 stat_s8 = BNO055_ERROR;
1818:Src/bno055.c  **** 	/* Check the struct p_bno055 is empty */
1819:Src/bno055.c  **** 	if (p_bno055 == BNO055_INIT_VALUE) {
 3001              		.loc 1 1819 0
 3002 0002 144C     		ldr	r4, .L355
1807:Src/bno055.c  **** 	/* Variable used to return value of
 3003              		.loc 1 1807 0
 3004 0004 83B0     		sub	sp, sp, #12
 3005              	.LCFI120:
 3006              		.cfi_def_cfa_offset 24
 3007              		.loc 1 1819 0
 3008 0006 2368     		ldr	r3, [r4]
1815:Src/bno055.c  **** 	BNO055_INIT_VALUE};
 3009              		.loc 1 1815 0
 3010 0008 0022     		movs	r2, #0
 3011 000a 8DF80420 		strb	r2, [sp, #4]
 3012 000e 8DF80520 		strb	r2, [sp, #5]
 3013              	.LVL317:
 3014              		.loc 1 1819 0
 3015 0012 EBB1     		cbz	r3, .L348
1820:Src/bno055.c  **** 		return BNO055_E_NULL_PTR;
1821:Src/bno055.c  **** 		} else {
1822:Src/bno055.c  **** 		/*condition check for page, chip id is
1823:Src/bno055.c  **** 		available in the page zero*/
1824:Src/bno055.c  **** 		if (p_bno055->page_id != BNO055_PAGE_ZERO)
 3016              		.loc 1 1824 0
 3017 0014 1979     		ldrb	r1, [r3, #4]	@ zero_extendqisi2
 3018 0016 0546     		mov	r5, r0
 3019 0018 79B9     		cbnz	r1, .L354
 3020              	.LVL318:
 3021              	.L346:
1825:Src/bno055.c  **** 			/* Write the page zero*/
1826:Src/bno055.c  **** 			stat_s8 = bno055_write_page_id(BNO055_PAGE_ZERO);
1827:Src/bno055.c  **** 		if ((stat_s8 == BNO055_SUCCESS) ||
1828:Src/bno055.c  **** 		(p_bno055->page_id == BNO055_PAGE_ZERO)) {
1829:Src/bno055.c  **** 			/* Read the two byte value
1830:Src/bno055.c  **** 			of quaternion y data*/
1831:Src/bno055.c  **** 			com_rslt = p_bno055->BNO055_BUS_READ_FUNC
 3022              		.loc 1 1831 0
 3023 001a 1C69     		ldr	r4, [r3, #16]
 3024 001c 587A     		ldrb	r0, [r3, #9]	@ zero_extendqisi2
 3025 001e 01AA     		add	r2, sp, #4
 3026 0020 0223     		movs	r3, #2
 3027 0022 2421     		movs	r1, #36
 3028 0024 A047     		blx	r4
 3029              	.LVL319:
1832:Src/bno055.c  **** 			(p_bno055->dev_addr,
1833:Src/bno055.c  **** 			BNO055_QUATERNION_DATA_Y_LSB_VALUEY_REG,
1834:Src/bno055.c  **** 			data_u8, BNO055_LSB_MSB_READ_LENGTH);
ARM GAS  /tmp/ccVWLGiI.s 			page 90


1835:Src/bno055.c  **** 			data_u8[BNO055_SENSOR_DATA_QUATERNION_LSB] =
1836:Src/bno055.c  **** 			BNO055_GET_BITSLICE(
1837:Src/bno055.c  **** 			data_u8[BNO055_SENSOR_DATA_QUATERNION_LSB],
1838:Src/bno055.c  **** 			BNO055_QUATERNION_DATA_Y_LSB_VALUEY);
1839:Src/bno055.c  **** 			data_u8[BNO055_SENSOR_DATA_QUATERNION_MSB] =
1840:Src/bno055.c  **** 			BNO055_GET_BITSLICE
1841:Src/bno055.c  **** 			(data_u8[BNO055_SENSOR_DATA_QUATERNION_MSB],
1842:Src/bno055.c  **** 			BNO055_QUATERNION_DATA_Y_MSB_VALUEY);
1843:Src/bno055.c  **** 			*quaternion_y_s16 = (s16)((((s32)
 3030              		.loc 1 1843 0
 3031 0026 9DF90520 		ldrsb	r2, [sp, #5]
 3032 002a 9DF80430 		ldrb	r3, [sp, #4]	@ zero_extendqisi2
 3033 002e 43EA0223 		orr	r3, r3, r2, lsl #8
 3034 0032 2B80     		strh	r3, [r5]	@ movhi
 3035              	.LVL320:
 3036              	.L345:
1844:Src/bno055.c  **** 			((s8)data_u8[BNO055_SENSOR_DATA_QUATERNION_MSB])) <<
1845:Src/bno055.c  **** 			BNO055_SHIFT_EIGHT_BITS)
1846:Src/bno055.c  **** 			| (data_u8[BNO055_SENSOR_DATA_QUATERNION_LSB]));
1847:Src/bno055.c  **** 		} else {
1848:Src/bno055.c  **** 		com_rslt = BNO055_ERROR;
1849:Src/bno055.c  **** 		}
1850:Src/bno055.c  **** 	}
1851:Src/bno055.c  **** 	return com_rslt;
1852:Src/bno055.c  **** }
 3037              		.loc 1 1852 0
 3038 0034 40B2     		sxtb	r0, r0
 3039 0036 03B0     		add	sp, sp, #12
 3040              	.LCFI121:
 3041              		.cfi_remember_state
 3042              		.cfi_def_cfa_offset 12
 3043              		@ sp needed
 3044 0038 30BD     		pop	{r4, r5, pc}
 3045              	.LVL321:
 3046              	.L354:
 3047              	.LCFI122:
 3048              		.cfi_restore_state
1826:Src/bno055.c  **** 		if ((stat_s8 == BNO055_SUCCESS) ||
 3049              		.loc 1 1826 0
 3050 003a 1046     		mov	r0, r2
 3051              	.LVL322:
 3052 003c FFF7FEFF 		bl	bno055_write_page_id
 3053              	.LVL323:
 3054 0040 2368     		ldr	r3, [r4]
1827:Src/bno055.c  **** 		(p_bno055->page_id == BNO055_PAGE_ZERO)) {
 3055              		.loc 1 1827 0
 3056 0042 0028     		cmp	r0, #0
 3057 0044 E9D0     		beq	.L346
 3058              	.LVL324:
1827:Src/bno055.c  **** 		(p_bno055->page_id == BNO055_PAGE_ZERO)) {
 3059              		.loc 1 1827 0 is_stmt 0 discriminator 1
 3060 0046 1A79     		ldrb	r2, [r3, #4]	@ zero_extendqisi2
1848:Src/bno055.c  **** 		}
 3061              		.loc 1 1848 0 is_stmt 1 discriminator 1
 3062 0048 FF20     		movs	r0, #255
1827:Src/bno055.c  **** 		(p_bno055->page_id == BNO055_PAGE_ZERO)) {
 3063              		.loc 1 1827 0 discriminator 1
ARM GAS  /tmp/ccVWLGiI.s 			page 91


 3064 004a 002A     		cmp	r2, #0
 3065 004c F2D1     		bne	.L345
 3066 004e E4E7     		b	.L346
 3067              	.LVL325:
 3068              	.L348:
1820:Src/bno055.c  **** 		} else {
 3069              		.loc 1 1820 0
 3070 0050 8120     		movs	r0, #129
 3071              	.LVL326:
 3072 0052 EFE7     		b	.L345
 3073              	.L356:
 3074              		.align	2
 3075              	.L355:
 3076 0054 00000000 		.word	.LANCHOR0
 3077              		.cfi_endproc
 3078              	.LFE29:
 3080              		.section	.text.bno055_read_quaternion_z,"ax",%progbits
 3081              		.align	2
 3082              		.global	bno055_read_quaternion_z
 3083              		.thumb
 3084              		.thumb_func
 3086              	bno055_read_quaternion_z:
 3087              	.LFB30:
1853:Src/bno055.c  **** /*!
1854:Src/bno055.c  ****  *	@brief This API reads quaternion data z values
1855:Src/bno055.c  ****  *	from register 0x26 and 0x27 it is a two byte data
1856:Src/bno055.c  ****  *
1857:Src/bno055.c  ****  *	@param quaternion_z_s16 : The raw z data
1858:Src/bno055.c  ****  *
1859:Src/bno055.c  ****  *	@return results of bus communication function
1860:Src/bno055.c  ****  *	@retval 0 -> BNO055_SUCCESS
1861:Src/bno055.c  ****  *	@retval 1 -> BNO055_ERROR
1862:Src/bno055.c  ****  *
1863:Src/bno055.c  ****  *
1864:Src/bno055.c  ****  */
1865:Src/bno055.c  **** BNO055_RETURN_FUNCTION_TYPE bno055_read_quaternion_z(
1866:Src/bno055.c  **** s16 *quaternion_z_s16)
1867:Src/bno055.c  **** {
 3088              		.loc 1 1867 0
 3089              		.cfi_startproc
 3090              		@ args = 0, pretend = 0, frame = 8
 3091              		@ frame_needed = 0, uses_anonymous_args = 0
 3092              	.LVL327:
 3093 0000 30B5     		push	{r4, r5, lr}
 3094              	.LCFI123:
 3095              		.cfi_def_cfa_offset 12
 3096              		.cfi_offset 4, -12
 3097              		.cfi_offset 5, -8
 3098              		.cfi_offset 14, -4
1868:Src/bno055.c  **** 	/* Variable used to return value of
1869:Src/bno055.c  **** 	communication routine*/
1870:Src/bno055.c  **** 	BNO055_RETURN_FUNCTION_TYPE com_rslt = BNO055_ERROR;
1871:Src/bno055.c  **** 	/* Array holding the quaternion z value
1872:Src/bno055.c  **** 	data_u8[BNO055_SENSOR_DATA_QUATERNION_LSB] - z->LSB
1873:Src/bno055.c  **** 	data_u8[BNO055_SENSOR_DATA_QUATERNION_MSB] - z->MSB
1874:Src/bno055.c  **** 	*/
1875:Src/bno055.c  **** 	u8 data_u8[BNO055_QUATERNION_DATA_SIZE] = {
ARM GAS  /tmp/ccVWLGiI.s 			page 92


1876:Src/bno055.c  **** 	BNO055_INIT_VALUE, BNO055_INIT_VALUE};
1877:Src/bno055.c  **** 	s8 stat_s8 = BNO055_ERROR;
1878:Src/bno055.c  **** 	/* Check the struct p_bno055 is empty */
1879:Src/bno055.c  **** 	if (p_bno055 == BNO055_INIT_VALUE) {
 3099              		.loc 1 1879 0
 3100 0002 144C     		ldr	r4, .L368
1867:Src/bno055.c  **** 	/* Variable used to return value of
 3101              		.loc 1 1867 0
 3102 0004 83B0     		sub	sp, sp, #12
 3103              	.LCFI124:
 3104              		.cfi_def_cfa_offset 24
 3105              		.loc 1 1879 0
 3106 0006 2368     		ldr	r3, [r4]
1875:Src/bno055.c  **** 	BNO055_INIT_VALUE, BNO055_INIT_VALUE};
 3107              		.loc 1 1875 0
 3108 0008 0022     		movs	r2, #0
 3109 000a 8DF80420 		strb	r2, [sp, #4]
 3110 000e 8DF80520 		strb	r2, [sp, #5]
 3111              	.LVL328:
 3112              		.loc 1 1879 0
 3113 0012 EBB1     		cbz	r3, .L361
1880:Src/bno055.c  **** 		return BNO055_E_NULL_PTR;
1881:Src/bno055.c  **** 		} else {
1882:Src/bno055.c  **** 		/*condition check for page, chip id is
1883:Src/bno055.c  **** 		available in the page zero*/
1884:Src/bno055.c  **** 		if (p_bno055->page_id != BNO055_PAGE_ZERO)
 3114              		.loc 1 1884 0
 3115 0014 1979     		ldrb	r1, [r3, #4]	@ zero_extendqisi2
 3116 0016 0546     		mov	r5, r0
 3117 0018 79B9     		cbnz	r1, .L367
 3118              	.LVL329:
 3119              	.L359:
1885:Src/bno055.c  **** 			/* Write the page zero*/
1886:Src/bno055.c  **** 			stat_s8 = bno055_write_page_id(BNO055_PAGE_ZERO);
1887:Src/bno055.c  **** 		if ((stat_s8 == BNO055_SUCCESS) ||
1888:Src/bno055.c  **** 		(p_bno055->page_id == BNO055_PAGE_ZERO)) {
1889:Src/bno055.c  **** 			/* Read the two byte value
1890:Src/bno055.c  **** 			of quaternion z data*/
1891:Src/bno055.c  **** 			com_rslt = p_bno055->BNO055_BUS_READ_FUNC
 3120              		.loc 1 1891 0
 3121 001a 1C69     		ldr	r4, [r3, #16]
 3122 001c 587A     		ldrb	r0, [r3, #9]	@ zero_extendqisi2
 3123 001e 01AA     		add	r2, sp, #4
 3124 0020 0223     		movs	r3, #2
 3125 0022 2621     		movs	r1, #38
 3126 0024 A047     		blx	r4
 3127              	.LVL330:
1892:Src/bno055.c  **** 			(p_bno055->dev_addr,
1893:Src/bno055.c  **** 			BNO055_QUATERNION_DATA_Z_LSB_VALUEZ_REG,
1894:Src/bno055.c  **** 			data_u8, BNO055_LSB_MSB_READ_LENGTH);
1895:Src/bno055.c  **** 			data_u8[BNO055_SENSOR_DATA_QUATERNION_LSB] =
1896:Src/bno055.c  **** 			BNO055_GET_BITSLICE(
1897:Src/bno055.c  **** 			data_u8[BNO055_SENSOR_DATA_QUATERNION_LSB],
1898:Src/bno055.c  **** 			BNO055_QUATERNION_DATA_Z_LSB_VALUEZ);
1899:Src/bno055.c  **** 			data_u8[BNO055_SENSOR_DATA_QUATERNION_MSB] =
1900:Src/bno055.c  **** 			BNO055_GET_BITSLICE(
1901:Src/bno055.c  **** 			data_u8[BNO055_SENSOR_DATA_QUATERNION_MSB],
ARM GAS  /tmp/ccVWLGiI.s 			page 93


1902:Src/bno055.c  **** 			BNO055_QUATERNION_DATA_Z_MSB_VALUEZ);
1903:Src/bno055.c  **** 			*quaternion_z_s16 = (s16)((((s32)
 3128              		.loc 1 1903 0
 3129 0026 9DF90520 		ldrsb	r2, [sp, #5]
 3130 002a 9DF80430 		ldrb	r3, [sp, #4]	@ zero_extendqisi2
 3131 002e 43EA0223 		orr	r3, r3, r2, lsl #8
 3132 0032 2B80     		strh	r3, [r5]	@ movhi
 3133              	.LVL331:
 3134              	.L358:
1904:Src/bno055.c  **** 			((s8)data_u8[BNO055_SENSOR_DATA_QUATERNION_MSB])) <<
1905:Src/bno055.c  **** 			BNO055_SHIFT_EIGHT_BITS)
1906:Src/bno055.c  **** 			| (data_u8[BNO055_SENSOR_DATA_QUATERNION_LSB]));
1907:Src/bno055.c  **** 		} else {
1908:Src/bno055.c  **** 		com_rslt = BNO055_ERROR;
1909:Src/bno055.c  **** 		}
1910:Src/bno055.c  **** 	}
1911:Src/bno055.c  **** 	return com_rslt;
1912:Src/bno055.c  **** }
 3135              		.loc 1 1912 0
 3136 0034 40B2     		sxtb	r0, r0
 3137 0036 03B0     		add	sp, sp, #12
 3138              	.LCFI125:
 3139              		.cfi_remember_state
 3140              		.cfi_def_cfa_offset 12
 3141              		@ sp needed
 3142 0038 30BD     		pop	{r4, r5, pc}
 3143              	.LVL332:
 3144              	.L367:
 3145              	.LCFI126:
 3146              		.cfi_restore_state
1886:Src/bno055.c  **** 		if ((stat_s8 == BNO055_SUCCESS) ||
 3147              		.loc 1 1886 0
 3148 003a 1046     		mov	r0, r2
 3149              	.LVL333:
 3150 003c FFF7FEFF 		bl	bno055_write_page_id
 3151              	.LVL334:
 3152 0040 2368     		ldr	r3, [r4]
1887:Src/bno055.c  **** 		(p_bno055->page_id == BNO055_PAGE_ZERO)) {
 3153              		.loc 1 1887 0
 3154 0042 0028     		cmp	r0, #0
 3155 0044 E9D0     		beq	.L359
 3156              	.LVL335:
1887:Src/bno055.c  **** 		(p_bno055->page_id == BNO055_PAGE_ZERO)) {
 3157              		.loc 1 1887 0 is_stmt 0 discriminator 1
 3158 0046 1A79     		ldrb	r2, [r3, #4]	@ zero_extendqisi2
1908:Src/bno055.c  **** 		}
 3159              		.loc 1 1908 0 is_stmt 1 discriminator 1
 3160 0048 FF20     		movs	r0, #255
1887:Src/bno055.c  **** 		(p_bno055->page_id == BNO055_PAGE_ZERO)) {
 3161              		.loc 1 1887 0 discriminator 1
 3162 004a 002A     		cmp	r2, #0
 3163 004c F2D1     		bne	.L358
 3164 004e E4E7     		b	.L359
 3165              	.LVL336:
 3166              	.L361:
1880:Src/bno055.c  **** 		} else {
 3167              		.loc 1 1880 0
ARM GAS  /tmp/ccVWLGiI.s 			page 94


 3168 0050 8120     		movs	r0, #129
 3169              	.LVL337:
 3170 0052 EFE7     		b	.L358
 3171              	.L369:
 3172              		.align	2
 3173              	.L368:
 3174 0054 00000000 		.word	.LANCHOR0
 3175              		.cfi_endproc
 3176              	.LFE30:
 3178              		.section	.text.bno055_read_quaternion_wxyz,"ax",%progbits
 3179              		.align	2
 3180              		.global	bno055_read_quaternion_wxyz
 3181              		.thumb
 3182              		.thumb_func
 3184              	bno055_read_quaternion_wxyz:
 3185              	.LFB31:
1913:Src/bno055.c  **** /*!
1914:Src/bno055.c  ****  *	@brief This API reads Quaternion data wxyz values
1915:Src/bno055.c  ****  *	from register 0x20 to 0x27 it is a six byte data
1916:Src/bno055.c  ****  *
1917:Src/bno055.c  ****  *
1918:Src/bno055.c  ****  *	@param quaternion : The value of quaternion wxyz data's
1919:Src/bno055.c  ****  *
1920:Src/bno055.c  ****  *	Parameter |    result
1921:Src/bno055.c  ****  *  --------- | -----------------
1922:Src/bno055.c  ****  *	 w        | The quaternion w data
1923:Src/bno055.c  ****  *	 x        | The quaternion x data
1924:Src/bno055.c  ****  *	 y        | The quaternion y data
1925:Src/bno055.c  ****  *	 z        | The quaternion z data
1926:Src/bno055.c  ****  *
1927:Src/bno055.c  ****  *
1928:Src/bno055.c  ****  *
1929:Src/bno055.c  ****  *	@return results of bus communication function
1930:Src/bno055.c  ****  *	@retval 0 -> BNO055_SUCCESS
1931:Src/bno055.c  ****  *	@retval 1 -> BNO055_ERROR
1932:Src/bno055.c  ****  *
1933:Src/bno055.c  ****  */
1934:Src/bno055.c  **** BNO055_RETURN_FUNCTION_TYPE bno055_read_quaternion_wxyz(
1935:Src/bno055.c  **** struct bno055_quaternion_t *quaternion)
1936:Src/bno055.c  **** {
 3186              		.loc 1 1936 0
 3187              		.cfi_startproc
 3188              		@ args = 0, pretend = 0, frame = 8
 3189              		@ frame_needed = 0, uses_anonymous_args = 0
 3190              	.LVL338:
 3191 0000 F0B5     		push	{r4, r5, r6, r7, lr}
 3192              	.LCFI127:
 3193              		.cfi_def_cfa_offset 20
 3194              		.cfi_offset 4, -20
 3195              		.cfi_offset 5, -16
 3196              		.cfi_offset 6, -12
 3197              		.cfi_offset 7, -8
 3198              		.cfi_offset 14, -4
1937:Src/bno055.c  **** 	/* Variable used to return value of
1938:Src/bno055.c  **** 	communication routine*/
1939:Src/bno055.c  **** 	BNO055_RETURN_FUNCTION_TYPE com_rslt = BNO055_ERROR;
1940:Src/bno055.c  **** 	/* Array holding the quaternion wxyz value
ARM GAS  /tmp/ccVWLGiI.s 			page 95


1941:Src/bno055.c  **** 	data_u8[BNO055_SENSOR_DATA_QUATERNION_WXYZ_W_LSB] - w->LSB
1942:Src/bno055.c  **** 	data_u8[BNO055_SENSOR_DATA_QUATERNION_WXYZ_W_MSB] - w->MSB
1943:Src/bno055.c  **** 	data_u8[BNO055_SENSOR_DATA_QUATERNION_WXYZ_X_LSB] - x->LSB
1944:Src/bno055.c  **** 	data_u8[BNO055_SENSOR_DATA_QUATERNION_WXYZ_X_MSB] - x->MSB
1945:Src/bno055.c  **** 	data_u8[BNO055_SENSOR_DATA_QUATERNION_WXYZ_Y_LSB] - y->MSB
1946:Src/bno055.c  **** 	data_u8[BNO055_SENSOR_DATA_QUATERNION_WXYZ_Y_MSB] - y->MSB
1947:Src/bno055.c  **** 	data_u8[BNO055_SENSOR_DATA_QUATERNION_WXYZ_Z_LSB] - z->MSB
1948:Src/bno055.c  **** 	data_u8[BNO055_SENSOR_DATA_QUATERNION_WXYZ_Z_MSB] - z->MSB
1949:Src/bno055.c  **** 	*/
1950:Src/bno055.c  **** 	u8 data_u8[BNO055_QUATERNION_WXYZ_DATA_SIZE] = {
1951:Src/bno055.c  **** 	BNO055_INIT_VALUE, BNO055_INIT_VALUE,
1952:Src/bno055.c  **** 	BNO055_INIT_VALUE, BNO055_INIT_VALUE,
1953:Src/bno055.c  **** 	BNO055_INIT_VALUE, BNO055_INIT_VALUE,
1954:Src/bno055.c  **** 	BNO055_INIT_VALUE, BNO055_INIT_VALUE};
1955:Src/bno055.c  **** 	s8 stat_s8 = BNO055_ERROR;
1956:Src/bno055.c  **** 	/* Check the struct p_bno055 is empty */
1957:Src/bno055.c  **** 	if (p_bno055 == BNO055_INIT_VALUE) {
 3199              		.loc 1 1957 0
 3200 0002 254D     		ldr	r5, .L381
1936:Src/bno055.c  **** 	/* Variable used to return value of
 3201              		.loc 1 1936 0
 3202 0004 83B0     		sub	sp, sp, #12
 3203              	.LCFI128:
 3204              		.cfi_def_cfa_offset 32
 3205              		.loc 1 1957 0
 3206 0006 2A68     		ldr	r2, [r5]
1950:Src/bno055.c  **** 	BNO055_INIT_VALUE, BNO055_INIT_VALUE,
 3207              		.loc 1 1950 0
 3208 0008 0023     		movs	r3, #0
 3209 000a 8DF80030 		strb	r3, [sp]
 3210 000e 8DF80130 		strb	r3, [sp, #1]
 3211 0012 8DF80230 		strb	r3, [sp, #2]
 3212 0016 8DF80330 		strb	r3, [sp, #3]
 3213 001a 8DF80430 		strb	r3, [sp, #4]
 3214 001e 8DF80530 		strb	r3, [sp, #5]
 3215 0022 8DF80630 		strb	r3, [sp, #6]
 3216 0026 8DF80730 		strb	r3, [sp, #7]
 3217              	.LVL339:
 3218              		.loc 1 1957 0
 3219 002a 002A     		cmp	r2, #0
 3220 002c 32D0     		beq	.L374
1958:Src/bno055.c  **** 		return BNO055_E_NULL_PTR;
1959:Src/bno055.c  **** 		} else {
1960:Src/bno055.c  **** 		/*condition check for page, chip id is
1961:Src/bno055.c  **** 		available in the page zero*/
1962:Src/bno055.c  **** 		if (p_bno055->page_id != BNO055_PAGE_ZERO)
 3221              		.loc 1 1962 0
 3222 002e 1179     		ldrb	r1, [r2, #4]	@ zero_extendqisi2
 3223 0030 0446     		mov	r4, r0
 3224 0032 21BB     		cbnz	r1, .L380
 3225              	.LVL340:
 3226              	.L372:
1963:Src/bno055.c  **** 			/* Write the page zero*/
1964:Src/bno055.c  **** 			stat_s8 = bno055_write_page_id(BNO055_PAGE_ZERO);
1965:Src/bno055.c  **** 		if ((stat_s8 == BNO055_SUCCESS) ||
1966:Src/bno055.c  **** 		(p_bno055->page_id == BNO055_PAGE_ZERO)) {
1967:Src/bno055.c  **** 			/* Read the eight byte value
ARM GAS  /tmp/ccVWLGiI.s 			page 96


1968:Src/bno055.c  **** 			of quaternion wxyz data*/
1969:Src/bno055.c  **** 			com_rslt = p_bno055->BNO055_BUS_READ_FUNC
 3227              		.loc 1 1969 0
 3228 0034 1569     		ldr	r5, [r2, #16]
 3229 0036 507A     		ldrb	r0, [r2, #9]	@ zero_extendqisi2
 3230 0038 2021     		movs	r1, #32
 3231 003a 6A46     		mov	r2, sp
 3232 003c 0823     		movs	r3, #8
 3233 003e A847     		blx	r5
 3234              	.LVL341:
1970:Src/bno055.c  **** 			(p_bno055->dev_addr,
1971:Src/bno055.c  **** 			BNO055_QUATERNION_DATA_W_LSB_VALUEW_REG,
1972:Src/bno055.c  **** 			data_u8, BNO055_QUATERNION_WXYZ_DATA_SIZE);
1973:Src/bno055.c  **** 			/* Data W*/
1974:Src/bno055.c  **** 			data_u8[BNO055_SENSOR_DATA_QUATERNION_WXYZ_W_LSB] =
1975:Src/bno055.c  **** 			BNO055_GET_BITSLICE(
1976:Src/bno055.c  **** 			data_u8[BNO055_SENSOR_DATA_QUATERNION_WXYZ_W_LSB],
1977:Src/bno055.c  **** 			BNO055_QUATERNION_DATA_W_LSB_VALUEW);
1978:Src/bno055.c  **** 			data_u8[BNO055_SENSOR_DATA_QUATERNION_WXYZ_W_MSB] =
1979:Src/bno055.c  **** 			BNO055_GET_BITSLICE(
1980:Src/bno055.c  **** 			data_u8[BNO055_SENSOR_DATA_QUATERNION_WXYZ_W_MSB],
1981:Src/bno055.c  **** 			BNO055_QUATERNION_DATA_W_MSB_VALUEW);
1982:Src/bno055.c  **** 			quaternion->w = (s16)((((s32)((s8)
 3235              		.loc 1 1982 0
 3236 0040 9DF901C0 		ldrsb	ip, [sp, #1]
 3237 0044 9DF80050 		ldrb	r5, [sp]	@ zero_extendqisi2
1983:Src/bno055.c  **** 			data_u8[BNO055_SENSOR_DATA_QUATERNION_WXYZ_W_MSB])) <<
1984:Src/bno055.c  **** 			BNO055_SHIFT_EIGHT_BITS) |
1985:Src/bno055.c  **** 			(data_u8[BNO055_SENSOR_DATA_QUATERNION_WXYZ_W_LSB]));
1986:Src/bno055.c  **** 			/* Data X*/
1987:Src/bno055.c  **** 			data_u8[BNO055_SENSOR_DATA_QUATERNION_WXYZ_X_LSB] =
1988:Src/bno055.c  **** 			BNO055_GET_BITSLICE(
1989:Src/bno055.c  **** 			data_u8[BNO055_SENSOR_DATA_QUATERNION_WXYZ_X_LSB],
1990:Src/bno055.c  **** 			BNO055_QUATERNION_DATA_X_LSB_VALUEX);
1991:Src/bno055.c  **** 			data_u8[BNO055_SENSOR_DATA_QUATERNION_WXYZ_X_MSB] =
1992:Src/bno055.c  **** 			BNO055_GET_BITSLICE(
1993:Src/bno055.c  **** 			data_u8[BNO055_SENSOR_DATA_QUATERNION_WXYZ_X_MSB],
1994:Src/bno055.c  **** 			BNO055_QUATERNION_DATA_X_MSB_VALUEX);
1995:Src/bno055.c  **** 			quaternion->x = (s16)((((s32)((s8)
 3238              		.loc 1 1995 0
 3239 0048 9DF903E0 		ldrsb	lr, [sp, #3]
 3240 004c 9DF80210 		ldrb	r1, [sp, #2]	@ zero_extendqisi2
1996:Src/bno055.c  **** 			data_u8[BNO055_SENSOR_DATA_QUATERNION_WXYZ_X_MSB])) <<
1997:Src/bno055.c  **** 			BNO055_SHIFT_EIGHT_BITS) |
1998:Src/bno055.c  **** 			(data_u8[BNO055_SENSOR_DATA_QUATERNION_WXYZ_X_LSB]));
1999:Src/bno055.c  **** 			/* Data Y*/
2000:Src/bno055.c  **** 			data_u8[BNO055_SENSOR_DATA_QUATERNION_WXYZ_Y_LSB] =
2001:Src/bno055.c  **** 			BNO055_GET_BITSLICE(
2002:Src/bno055.c  **** 			data_u8[BNO055_SENSOR_DATA_QUATERNION_WXYZ_Y_LSB],
2003:Src/bno055.c  **** 			BNO055_QUATERNION_DATA_Y_LSB_VALUEY);
2004:Src/bno055.c  **** 			data_u8[BNO055_SENSOR_DATA_QUATERNION_WXYZ_Y_MSB] =
2005:Src/bno055.c  **** 			BNO055_GET_BITSLICE(
2006:Src/bno055.c  **** 			data_u8[BNO055_SENSOR_DATA_QUATERNION_WXYZ_Y_MSB],
2007:Src/bno055.c  **** 			BNO055_QUATERNION_DATA_Y_MSB_VALUEY);
2008:Src/bno055.c  **** 			quaternion->y = (s16)((((s32)((s8)
 3241              		.loc 1 2008 0
 3242 0050 9DF90570 		ldrsb	r7, [sp, #5]
ARM GAS  /tmp/ccVWLGiI.s 			page 97


 3243 0054 9DF80420 		ldrb	r2, [sp, #4]	@ zero_extendqisi2
2009:Src/bno055.c  **** 			data_u8[BNO055_SENSOR_DATA_QUATERNION_WXYZ_Y_MSB])) <<
2010:Src/bno055.c  **** 			BNO055_SHIFT_EIGHT_BITS) |
2011:Src/bno055.c  **** 			(data_u8[BNO055_SENSOR_DATA_QUATERNION_WXYZ_Y_LSB]));
2012:Src/bno055.c  **** 			/* Data Z*/
2013:Src/bno055.c  **** 			data_u8[BNO055_SENSOR_DATA_QUATERNION_WXYZ_Z_LSB] =
2014:Src/bno055.c  **** 			BNO055_GET_BITSLICE(
2015:Src/bno055.c  **** 			data_u8[BNO055_SENSOR_DATA_QUATERNION_WXYZ_Z_LSB],
2016:Src/bno055.c  **** 			BNO055_QUATERNION_DATA_Z_LSB_VALUEZ);
2017:Src/bno055.c  **** 			data_u8[BNO055_SENSOR_DATA_QUATERNION_WXYZ_Z_MSB] =
2018:Src/bno055.c  **** 			BNO055_GET_BITSLICE(
2019:Src/bno055.c  **** 			data_u8[BNO055_SENSOR_DATA_QUATERNION_WXYZ_Z_MSB],
2020:Src/bno055.c  **** 			BNO055_QUATERNION_DATA_Z_MSB_VALUEZ);
2021:Src/bno055.c  **** 			quaternion->z = (s16)((((s32)((s8)
 3244              		.loc 1 2021 0
 3245 0058 9DF90760 		ldrsb	r6, [sp, #7]
 3246 005c 9DF80630 		ldrb	r3, [sp, #6]	@ zero_extendqisi2
1982:Src/bno055.c  **** 			data_u8[BNO055_SENSOR_DATA_QUATERNION_WXYZ_W_MSB])) <<
 3247              		.loc 1 1982 0
 3248 0060 45EA0C25 		orr	r5, r5, ip, lsl #8
1995:Src/bno055.c  **** 			data_u8[BNO055_SENSOR_DATA_QUATERNION_WXYZ_X_MSB])) <<
 3249              		.loc 1 1995 0
 3250 0064 41EA0E21 		orr	r1, r1, lr, lsl #8
2008:Src/bno055.c  **** 			data_u8[BNO055_SENSOR_DATA_QUATERNION_WXYZ_Y_MSB])) <<
 3251              		.loc 1 2008 0
 3252 0068 42EA0722 		orr	r2, r2, r7, lsl #8
 3253              		.loc 1 2021 0
 3254 006c 43EA0623 		orr	r3, r3, r6, lsl #8
1982:Src/bno055.c  **** 			data_u8[BNO055_SENSOR_DATA_QUATERNION_WXYZ_W_MSB])) <<
 3255              		.loc 1 1982 0
 3256 0070 2580     		strh	r5, [r4]	@ movhi
1995:Src/bno055.c  **** 			data_u8[BNO055_SENSOR_DATA_QUATERNION_WXYZ_X_MSB])) <<
 3257              		.loc 1 1995 0
 3258 0072 6180     		strh	r1, [r4, #2]	@ movhi
2008:Src/bno055.c  **** 			data_u8[BNO055_SENSOR_DATA_QUATERNION_WXYZ_Y_MSB])) <<
 3259              		.loc 1 2008 0
 3260 0074 A280     		strh	r2, [r4, #4]	@ movhi
 3261              		.loc 1 2021 0
 3262 0076 E380     		strh	r3, [r4, #6]	@ movhi
 3263              	.LVL342:
 3264              	.L371:
2022:Src/bno055.c  **** 			data_u8[BNO055_SENSOR_DATA_QUATERNION_WXYZ_Z_MSB])) <<
2023:Src/bno055.c  **** 			BNO055_SHIFT_EIGHT_BITS) |
2024:Src/bno055.c  **** 			(data_u8[BNO055_SENSOR_DATA_QUATERNION_WXYZ_Z_LSB]));
2025:Src/bno055.c  **** 		} else {
2026:Src/bno055.c  **** 		com_rslt = BNO055_ERROR;
2027:Src/bno055.c  **** 		}
2028:Src/bno055.c  **** 	}
2029:Src/bno055.c  **** 	return com_rslt;
2030:Src/bno055.c  **** }
 3265              		.loc 1 2030 0
 3266 0078 40B2     		sxtb	r0, r0
 3267 007a 03B0     		add	sp, sp, #12
 3268              	.LCFI129:
 3269              		.cfi_remember_state
 3270              		.cfi_def_cfa_offset 20
 3271              		@ sp needed
ARM GAS  /tmp/ccVWLGiI.s 			page 98


 3272 007c F0BD     		pop	{r4, r5, r6, r7, pc}
 3273              	.LVL343:
 3274              	.L380:
 3275              	.LCFI130:
 3276              		.cfi_restore_state
1964:Src/bno055.c  **** 		if ((stat_s8 == BNO055_SUCCESS) ||
 3277              		.loc 1 1964 0
 3278 007e 1846     		mov	r0, r3
 3279              	.LVL344:
 3280 0080 FFF7FEFF 		bl	bno055_write_page_id
 3281              	.LVL345:
 3282 0084 2A68     		ldr	r2, [r5]
1965:Src/bno055.c  **** 		(p_bno055->page_id == BNO055_PAGE_ZERO)) {
 3283              		.loc 1 1965 0
 3284 0086 0028     		cmp	r0, #0
 3285 0088 D4D0     		beq	.L372
 3286              	.LVL346:
1965:Src/bno055.c  **** 		(p_bno055->page_id == BNO055_PAGE_ZERO)) {
